
nautilus.bin:     file format elf64-x86-64


Disassembly of section .text:

0000000000304000 <Format_Output>:
  304000:	55                   	push   %rbp
  304001:	48 89 e5             	mov    %rsp,%rbp
  304004:	41 57                	push   %r15
  304006:	49 89 ff             	mov    %rdi,%r15
  304009:	41 56                	push   %r14
  30400b:	49 89 d6             	mov    %rdx,%r14
  30400e:	41 55                	push   %r13
  304010:	49 89 f5             	mov    %rsi,%r13
  304013:	41 54                	push   %r12
  304015:	45 31 e4             	xor    %r12d,%r12d
  304018:	53                   	push   %rbx
  304019:	48 81 ec 98 00 00 00 	sub    $0x98,%rsp
  304020:	0f be 06             	movsbl (%rsi),%eax
  304023:	c7 45 8c 00 00 00 00 	movl   $0x0,-0x74(%rbp)
  30402a:	c7 45 84 ff ff ff ff 	movl   $0xffffffff,-0x7c(%rbp)
  304031:	c7 45 88 00 00 00 00 	movl   $0x0,-0x78(%rbp)
  304038:	c7 45 80 00 00 00 00 	movl   $0x0,-0x80(%rbp)
  30403f:	90                   	nop
  304040:	84 c0                	test   %al,%al
  304042:	49 8d 5d 01          	lea    0x1(%r13),%rbx
  304046:	74 50                	je     304098 <Format_Output+0x98>
  304048:	41 83 fc 04          	cmp    $0x4,%r12d
  30404c:	0f 87 3e 01 00 00    	ja     304190 <Format_Output+0x190>
  304052:	44 89 e2             	mov    %r12d,%edx
  304055:	48 bf 00 d0 33 00 00 	movabs $0x33d000,%rdi
  30405c:	00 00 00 
  30405f:	ff 24 d7             	jmpq   *(%rdi,%rdx,8)
  304062:	66 0f 1f 44 00 00    	nopw   0x0(%rax,%rax,1)
  304068:	8d 50 d0             	lea    -0x30(%rax),%edx
  30406b:	80 fa 09             	cmp    $0x9,%dl
  30406e:	0f 87 4c 01 00 00    	ja     3041c0 <Format_Output+0x1c0>
  304074:	8b 4d 84             	mov    -0x7c(%rbp),%ecx
  304077:	8d 14 89             	lea    (%rcx,%rcx,4),%edx
  30407a:	8d 44 50 d0          	lea    -0x30(%rax,%rdx,2),%eax
  30407e:	89 45 84             	mov    %eax,-0x7c(%rbp)
  304081:	41 0f be 45 01       	movsbl 0x1(%r13),%eax
  304086:	49 89 dd             	mov    %rbx,%r13
  304089:	49 8d 5d 01          	lea    0x1(%r13),%rbx
  30408d:	84 c0                	test   %al,%al
  30408f:	75 b7                	jne    304048 <Format_Output+0x48>
  304091:	0f 1f 80 00 00 00 00 	nopl   0x0(%rax)
  304098:	4c 89 ff             	mov    %r15,%rdi
  30409b:	41 ff 57 08          	callq  *0x8(%r15)
  30409f:	48 81 c4 98 00 00 00 	add    $0x98,%rsp
  3040a6:	31 c0                	xor    %eax,%eax
  3040a8:	5b                   	pop    %rbx
  3040a9:	41 5c                	pop    %r12
  3040ab:	41 5d                	pop    %r13
  3040ad:	41 5e                	pop    %r14
  3040af:	41 5f                	pop    %r15
  3040b1:	5d                   	pop    %rbp
  3040b2:	c3                   	retq   
  3040b3:	0f 1f 44 00 00       	nopl   0x0(%rax,%rax,1)
  3040b8:	8d 50 d0             	lea    -0x30(%rax),%edx
  3040bb:	80 fa 09             	cmp    $0x9,%dl
  3040be:	0f 87 14 01 00 00    	ja     3041d8 <Format_Output+0x1d8>
  3040c4:	8b 4d 88             	mov    -0x78(%rbp),%ecx
  3040c7:	8d 14 89             	lea    (%rcx,%rcx,4),%edx
  3040ca:	8d 44 50 d0          	lea    -0x30(%rax,%rdx,2),%eax
  3040ce:	89 45 88             	mov    %eax,-0x78(%rbp)
  3040d1:	41 0f be 45 01       	movsbl 0x1(%r13),%eax
  3040d6:	49 89 dd             	mov    %rbx,%r13
  3040d9:	e9 62 ff ff ff       	jmpq   304040 <Format_Output+0x40>
  3040de:	66 90                	xchg   %ax,%ax
  3040e0:	8d 50 e0             	lea    -0x20(%rax),%edx
  3040e3:	80 fa 10             	cmp    $0x10,%dl
  3040e6:	0f 87 8c 02 00 00    	ja     304378 <Format_Output+0x378>
  3040ec:	0f b6 d2             	movzbl %dl,%edx
  3040ef:	48 be 28 d0 33 00 00 	movabs $0x33d028,%rsi
  3040f6:	00 00 00 
  3040f9:	ff 24 d6             	jmpq   *(%rsi,%rdx,8)
  3040fc:	0f 1f 40 00          	nopl   0x0(%rax)
  304100:	3c 25                	cmp    $0x25,%al
  304102:	0f 85 98 00 00 00    	jne    3041a0 <Format_Output+0x1a0>
  304108:	41 0f be 45 01       	movsbl 0x1(%r13),%eax
  30410d:	41 bc 01 00 00 00    	mov    $0x1,%r12d
  304113:	49 89 dd             	mov    %rbx,%r13
  304116:	c7 45 8c 00 00 00 00 	movl   $0x0,-0x74(%rbp)
  30411d:	c7 45 84 ff ff ff ff 	movl   $0xffffffff,-0x7c(%rbp)
  304124:	c7 45 88 00 00 00 00 	movl   $0x0,-0x78(%rbp)
  30412b:	c7 45 80 00 00 00 00 	movl   $0x0,-0x80(%rbp)
  304132:	e9 09 ff ff ff       	jmpq   304040 <Format_Output+0x40>
  304137:	66 0f 1f 84 00 00 00 	nopw   0x0(%rax,%rax,1)
  30413e:	00 00 
  304140:	8d 50 b4             	lea    -0x4c(%rax),%edx
  304143:	80 fa 2e             	cmp    $0x2e,%dl
  304146:	0f 87 1c 01 00 00    	ja     304268 <Format_Output+0x268>
  30414c:	0f b6 d2             	movzbl %dl,%edx
  30414f:	48 be b0 d0 33 00 00 	movabs $0x33d0b0,%rsi
  304156:	00 00 00 
  304159:	ff 24 d6             	jmpq   *(%rsi,%rdx,8)
  30415c:	0f 1f 40 00          	nopl   0x0(%rax)
  304160:	41 8b 16             	mov    (%r14),%edx
  304163:	83 fa 30             	cmp    $0x30,%edx
  304166:	0f 83 f4 01 00 00    	jae    304360 <Format_Output+0x360>
  30416c:	89 d0                	mov    %edx,%eax
  30416e:	49 03 46 10          	add    0x10(%r14),%rax
  304172:	83 c2 08             	add    $0x8,%edx
  304175:	41 89 16             	mov    %edx,(%r14)
  304178:	8b 00                	mov    (%rax),%eax
  30417a:	85 c0                	test   %eax,%eax
  30417c:	89 45 88             	mov    %eax,-0x78(%rbp)
  30417f:	79 0f                	jns    304190 <Format_Output+0x190>
  304181:	f7 5d 88             	negl   -0x78(%rbp)
  304184:	83 4d 8c 02          	orl    $0x2,-0x74(%rbp)
  304188:	0f 1f 84 00 00 00 00 	nopl   0x0(%rax,%rax,1)
  30418f:	00 
  304190:	41 0f be 45 01       	movsbl 0x1(%r13),%eax
  304195:	49 89 dd             	mov    %rbx,%r13
  304198:	e9 a3 fe ff ff       	jmpq   304040 <Format_Output+0x40>
  30419d:	0f 1f 00             	nopl   (%rax)
  3041a0:	0f be f0             	movsbl %al,%esi
  3041a3:	4c 89 ff             	mov    %r15,%rdi
  3041a6:	41 ff 17             	callq  *(%r15)
  3041a9:	41 0f be 45 01       	movsbl 0x1(%r13),%eax
  3041ae:	49 89 dd             	mov    %rbx,%r13
  3041b1:	e9 8a fe ff ff       	jmpq   304040 <Format_Output+0x40>
  3041b6:	66 2e 0f 1f 84 00 00 	nopw   %cs:0x0(%rax,%rax,1)
  3041bd:	00 00 00 
  3041c0:	3c 2a                	cmp    $0x2a,%al
  3041c2:	0f 84 50 01 00 00    	je     304318 <Format_Output+0x318>
  3041c8:	41 bc 04 00 00 00    	mov    $0x4,%r12d
  3041ce:	e9 6d fe ff ff       	jmpq   304040 <Format_Output+0x40>
  3041d3:	0f 1f 44 00 00       	nopl   0x0(%rax,%rax,1)
  3041d8:	3c 2a                	cmp    $0x2a,%al
  3041da:	74 84                	je     304160 <Format_Output+0x160>
  3041dc:	3c 2e                	cmp    $0x2e,%al
  3041de:	41 bc 04 00 00 00    	mov    $0x4,%r12d
  3041e4:	0f 85 56 fe ff ff    	jne    304040 <Format_Output+0x40>
  3041ea:	41 0f be 45 01       	movsbl 0x1(%r13),%eax
  3041ef:	41 b4 03             	mov    $0x3,%r12b
  3041f2:	49 89 dd             	mov    %rbx,%r13
  3041f5:	c7 45 84 00 00 00 00 	movl   $0x0,-0x7c(%rbp)
  3041fc:	e9 3f fe ff ff       	jmpq   304040 <Format_Output+0x40>
  304201:	0f 1f 80 00 00 00 00 	nopl   0x0(%rax)
  304208:	41 0f be 45 01       	movsbl 0x1(%r13),%eax
  30420d:	83 45 80 01          	addl   $0x1,-0x80(%rbp)
  304211:	49 89 dd             	mov    %rbx,%r13
  304214:	e9 27 fe ff ff       	jmpq   304040 <Format_Output+0x40>
  304219:	0f 1f 80 00 00 00 00 	nopl   0x0(%rax)
  304220:	41 0f be 45 01       	movsbl 0x1(%r13),%eax
  304225:	c7 45 80 01 00 00 00 	movl   $0x1,-0x80(%rbp)
  30422c:	49 89 dd             	mov    %rbx,%r13
  30422f:	e9 0c fe ff ff       	jmpq   304040 <Format_Output+0x40>
  304234:	0f 1f 40 00          	nopl   0x0(%rax)
  304238:	41 0f be 45 01       	movsbl 0x1(%r13),%eax
  30423d:	83 6d 80 01          	subl   $0x1,-0x80(%rbp)
  304241:	49 89 dd             	mov    %rbx,%r13
  304244:	e9 f7 fd ff ff       	jmpq   304040 <Format_Output+0x40>
  304249:	0f 1f 80 00 00 00 00 	nopl   0x0(%rax)
  304250:	41 0f be 45 01       	movsbl 0x1(%r13),%eax
  304255:	83 45 80 02          	addl   $0x2,-0x80(%rbp)
  304259:	49 89 dd             	mov    %rbx,%r13
  30425c:	e9 df fd ff ff       	jmpq   304040 <Format_Output+0x40>
  304261:	0f 1f 80 00 00 00 00 	nopl   0x0(%rax)
  304268:	8b 4d 80             	mov    -0x80(%rbp),%ecx
  30426b:	ba 01 00 00 00       	mov    $0x1,%edx
  304270:	85 c9                	test   %ecx,%ecx
  304272:	0f 4e d1             	cmovle %ecx,%edx
  304275:	b9 fe ff ff ff       	mov    $0xfffffffe,%ecx
  30427a:	39 ca                	cmp    %ecx,%edx
  30427c:	0f 4c d1             	cmovl  %ecx,%edx
  30427f:	89 55 80             	mov    %edx,-0x80(%rbp)
  304282:	8d 50 b0             	lea    -0x50(%rax),%edx
  304285:	80 fa 28             	cmp    $0x28,%dl
  304288:	0f 87 07 09 00 00    	ja     304b95 <Format_Output+0xb95>
  30428e:	0f b6 d2             	movzbl %dl,%edx
  304291:	48 b9 28 d2 33 00 00 	movabs $0x33d228,%rcx
  304298:	00 00 00 
  30429b:	ff 24 d1             	jmpq   *(%rcx,%rdx,8)
  30429e:	66 90                	xchg   %ax,%ax
  3042a0:	41 0f be 45 01       	movsbl 0x1(%r13),%eax
  3042a5:	83 4d 8c 01          	orl    $0x1,-0x74(%rbp)
  3042a9:	49 89 dd             	mov    %rbx,%r13
  3042ac:	e9 8f fd ff ff       	jmpq   304040 <Format_Output+0x40>
  3042b1:	0f 1f 80 00 00 00 00 	nopl   0x0(%rax)
  3042b8:	41 0f be 45 01       	movsbl 0x1(%r13),%eax
  3042bd:	83 4d 8c 04          	orl    $0x4,-0x74(%rbp)
  3042c1:	49 89 dd             	mov    %rbx,%r13
  3042c4:	e9 77 fd ff ff       	jmpq   304040 <Format_Output+0x40>
  3042c9:	0f 1f 80 00 00 00 00 	nopl   0x0(%rax)
  3042d0:	41 0f be 45 01       	movsbl 0x1(%r13),%eax
  3042d5:	83 4d 8c 08          	orl    $0x8,-0x74(%rbp)
  3042d9:	49 89 dd             	mov    %rbx,%r13
  3042dc:	e9 5f fd ff ff       	jmpq   304040 <Format_Output+0x40>
  3042e1:	0f 1f 80 00 00 00 00 	nopl   0x0(%rax)
  3042e8:	41 0f be 45 01       	movsbl 0x1(%r13),%eax
  3042ed:	83 4d 8c 20          	orl    $0x20,-0x74(%rbp)
  3042f1:	49 89 dd             	mov    %rbx,%r13
  3042f4:	e9 47 fd ff ff       	jmpq   304040 <Format_Output+0x40>
  3042f9:	0f 1f 80 00 00 00 00 	nopl   0x0(%rax)
  304300:	41 0f be 45 01       	movsbl 0x1(%r13),%eax
  304305:	83 4d 8c 10          	orl    $0x10,-0x74(%rbp)
  304309:	49 89 dd             	mov    %rbx,%r13
  30430c:	e9 2f fd ff ff       	jmpq   304040 <Format_Output+0x40>
  304311:	0f 1f 80 00 00 00 00 	nopl   0x0(%rax)
  304318:	41 8b 16             	mov    (%r14),%edx
  30431b:	83 fa 30             	cmp    $0x30,%edx
  30431e:	73 30                	jae    304350 <Format_Output+0x350>
  304320:	89 d0                	mov    %edx,%eax
  304322:	49 03 46 10          	add    0x10(%r14),%rax
  304326:	83 c2 08             	add    $0x8,%edx
  304329:	41 89 16             	mov    %edx,(%r14)
  30432c:	8b 00                	mov    (%rax),%eax
  30432e:	85 c0                	test   %eax,%eax
  304330:	89 45 84             	mov    %eax,-0x7c(%rbp)
  304333:	41 0f be 45 01       	movsbl 0x1(%r13),%eax
  304338:	49 89 dd             	mov    %rbx,%r13
  30433b:	0f 89 ff fc ff ff    	jns    304040 <Format_Output+0x40>
  304341:	c7 45 84 ff ff ff ff 	movl   $0xffffffff,-0x7c(%rbp)
  304348:	e9 f3 fc ff ff       	jmpq   304040 <Format_Output+0x40>
  30434d:	0f 1f 00             	nopl   (%rax)
  304350:	49 8b 46 08          	mov    0x8(%r14),%rax
  304354:	48 8d 50 08          	lea    0x8(%rax),%rdx
  304358:	49 89 56 08          	mov    %rdx,0x8(%r14)
  30435c:	eb ce                	jmp    30432c <Format_Output+0x32c>
  30435e:	66 90                	xchg   %ax,%ax
  304360:	49 8b 46 08          	mov    0x8(%r14),%rax
  304364:	48 8d 50 08          	lea    0x8(%rax),%rdx
  304368:	49 89 56 08          	mov    %rdx,0x8(%r14)
  30436c:	e9 07 fe ff ff       	jmpq   304178 <Format_Output+0x178>
  304371:	0f 1f 80 00 00 00 00 	nopl   0x0(%rax)
  304378:	41 bc 02 00 00 00    	mov    $0x2,%r12d
  30437e:	e9 bd fc ff ff       	jmpq   304040 <Format_Output+0x40>
  304383:	81 4d 8c 80 00 00 00 	orl    $0x80,-0x74(%rbp)
  30438a:	41 8b 16             	mov    (%r14),%edx
  30438d:	83 4d 8c 20          	orl    $0x20,-0x74(%rbp)
  304391:	83 fa 30             	cmp    $0x30,%edx
  304394:	0f 83 36 04 00 00    	jae    3047d0 <Format_Output+0x7d0>
  30439a:	89 d0                	mov    %edx,%eax
  30439c:	49 03 46 10          	add    0x10(%r14),%rax
  3043a0:	83 c2 08             	add    $0x8,%edx
  3043a3:	41 89 16             	mov    %edx,(%r14)
  3043a6:	4c 8b 10             	mov    (%rax),%r10
  3043a9:	41 bc 10 00 00 00    	mov    $0x10,%r12d
  3043af:	c7 45 84 10 00 00 00 	movl   $0x10,-0x7c(%rbp)
  3043b6:	8b 7d 8c             	mov    -0x74(%rbp),%edi
  3043b9:	48 b8 90 d3 33 00 00 	movabs $0x33d390,%rax
  3043c0:	00 00 00 
  3043c3:	48 89 c1             	mov    %rax,%rcx
  3043c6:	89 f8                	mov    %edi,%eax
  3043c8:	25 80 00 00 00       	and    $0x80,%eax
  3043cd:	89 85 60 ff ff ff    	mov    %eax,-0xa0(%rbp)
  3043d3:	48 b8 70 d3 33 00 00 	movabs $0x33d370,%rax
  3043da:	00 00 00 
  3043dd:	48 0f 45 c1          	cmovne %rcx,%rax
  3043e1:	31 c9                	xor    %ecx,%ecx
  3043e3:	83 e7 40             	and    $0x40,%edi
  3043e6:	48 89 85 48 ff ff ff 	mov    %rax,-0xb8(%rbp)
  3043ed:	74 09                	je     3043f8 <Format_Output+0x3f8>
  3043ef:	4d 85 d2             	test   %r10,%r10
  3043f2:	0f 88 e9 03 00 00    	js     3047e1 <Format_Output+0x7e1>
  3043f8:	4d 85 d2             	test   %r10,%r10
  3043fb:	0f 84 3f 03 00 00    	je     304740 <Format_Output+0x740>
  304401:	49 63 fc             	movslq %r12d,%rdi
  304404:	4c 89 d0             	mov    %r10,%rax
  304407:	31 f6                	xor    %esi,%esi
  304409:	0f 1f 80 00 00 00 00 	nopl   0x0(%rax)
  304410:	31 d2                	xor    %edx,%edx
  304412:	83 c6 01             	add    $0x1,%esi
  304415:	48 f7 f7             	div    %rdi
  304418:	48 85 c0             	test   %rax,%rax
  30441b:	75 f3                	jne    304410 <Format_Output+0x410>
  30441d:	8b 45 8c             	mov    -0x74(%rbp),%eax
  304420:	8b 7d 84             	mov    -0x7c(%rbp),%edi
  304423:	83 e0 20             	and    $0x20,%eax
  304426:	89 85 58 ff ff ff    	mov    %eax,-0xa8(%rbp)
  30442c:	74 0a                	je     304438 <Format_Output+0x438>
  30442e:	41 83 fc 08          	cmp    $0x8,%r12d
  304432:	0f 84 0f 03 00 00    	je     304747 <Format_Output+0x747>
  304438:	39 fe                	cmp    %edi,%esi
  30443a:	0f 8d b8 01 00 00    	jge    3045f8 <Format_Output+0x5f8>
  304440:	8d 47 ff             	lea    -0x1(%rdi),%eax
  304443:	89 fe                	mov    %edi,%esi
  304445:	f6 45 8c 08          	testb  $0x8,-0x74(%rbp)
  304449:	89 b5 64 ff ff ff    	mov    %esi,-0x9c(%rbp)
  30444f:	74 17                	je     304468 <Format_Output+0x468>
  304451:	31 ff                	xor    %edi,%edi
  304453:	41 83 fc 10          	cmp    $0x10,%r12d
  304457:	40 0f 94 c7          	sete   %dil
  30445b:	89 bd 64 ff ff ff    	mov    %edi,-0x9c(%rbp)
  304461:	83 85 64 ff ff ff 03 	addl   $0x3,-0x9c(%rbp)
  304468:	99                   	cltd   
  304469:	f7 bd 64 ff ff ff    	idivl  -0x9c(%rbp)
  30446f:	01 f0                	add    %esi,%eax
  304471:	85 c9                	test   %ecx,%ecx
  304473:	89 85 68 ff ff ff    	mov    %eax,-0x98(%rbp)
  304479:	75 0c                	jne    304487 <Format_Output+0x487>
  30447b:	f6 45 8c 14          	testb  $0x14,-0x74(%rbp)
  30447f:	89 85 78 ff ff ff    	mov    %eax,-0x88(%rbp)
  304485:	74 0f                	je     304496 <Format_Output+0x496>
  304487:	8b 85 68 ff ff ff    	mov    -0x98(%rbp),%eax
  30448d:	83 c0 01             	add    $0x1,%eax
  304490:	89 85 78 ff ff ff    	mov    %eax,-0x88(%rbp)
  304496:	8b b5 58 ff ff ff    	mov    -0xa8(%rbp),%esi
  30449c:	85 f6                	test   %esi,%esi
  30449e:	74 18                	je     3044b8 <Format_Output+0x4b8>
  3044a0:	8b bd 78 ff ff ff    	mov    -0x88(%rbp),%edi
  3044a6:	89 f8                	mov    %edi,%eax
  3044a8:	83 c0 02             	add    $0x2,%eax
  3044ab:	41 83 fc 10          	cmp    $0x10,%r12d
  3044af:	0f 45 c7             	cmovne %edi,%eax
  3044b2:	89 85 78 ff ff ff    	mov    %eax,-0x88(%rbp)
  3044b8:	8b 45 88             	mov    -0x78(%rbp),%eax
  3044bb:	89 85 70 ff ff ff    	mov    %eax,-0x90(%rbp)
  3044c1:	8b 45 8c             	mov    -0x74(%rbp),%eax
  3044c4:	83 e0 03             	and    $0x3,%eax
  3044c7:	89 85 54 ff ff ff    	mov    %eax,-0xac(%rbp)
  3044cd:	75 0f                	jne    3044de <Format_Output+0x4de>
  3044cf:	8b 45 88             	mov    -0x78(%rbp),%eax
  3044d2:	3b 85 78 ff ff ff    	cmp    -0x88(%rbp),%eax
  3044d8:	0f 8f ca 00 00 00    	jg     3045a8 <Format_Output+0x5a8>
  3044de:	85 c9                	test   %ecx,%ecx
  3044e0:	0f 85 2a 01 00 00    	jne    304610 <Format_Output+0x610>
  3044e6:	f6 45 8c 04          	testb  $0x4,-0x74(%rbp)
  3044ea:	0f 85 b8 02 00 00    	jne    3047a8 <Format_Output+0x7a8>
  3044f0:	f6 45 8c 10          	testb  $0x10,-0x74(%rbp)
  3044f4:	0f 85 90 02 00 00    	jne    30478a <Format_Output+0x78a>
  3044fa:	8b 8d 58 ff ff ff    	mov    -0xa8(%rbp),%ecx
  304500:	85 c9                	test   %ecx,%ecx
  304502:	74 0a                	je     30450e <Format_Output+0x50e>
  304504:	41 83 fc 10          	cmp    $0x10,%r12d
  304508:	0f 84 49 02 00 00    	je     304757 <Format_Output+0x757>
  30450e:	83 bd 54 ff ff ff 01 	cmpl   $0x1,-0xac(%rbp)
  304515:	0f 84 15 01 00 00    	je     304630 <Format_Output+0x630>
  30451b:	83 bd 68 ff ff ff 2b 	cmpl   $0x2b,-0x98(%rbp)
  304522:	7f 7c                	jg     3045a0 <Format_Output+0x5a0>
  304524:	8b 85 68 ff ff ff    	mov    -0x98(%rbp),%eax
  30452a:	48 8d 75 a0          	lea    -0x60(%rbp),%rsi
  30452e:	4d 63 c4             	movslq %r12d,%r8
  304531:	48 63 c8             	movslq %eax,%rcx
  304534:	85 c0                	test   %eax,%eax
  304536:	48 8d 3c 0e          	lea    (%rsi,%rcx,1),%rdi
  30453a:	8b b5 64 ff ff ff    	mov    -0x9c(%rbp),%esi
  304540:	0f 8e 52 01 00 00    	jle    304698 <Format_Output+0x698>
  304546:	4c 89 d0             	mov    %r10,%rax
  304549:	44 8b 8d 68 ff ff ff 	mov    -0x98(%rbp),%r9d
  304550:	4c 8b a5 48 ff ff ff 	mov    -0xb8(%rbp),%r12
  304557:	eb 2c                	jmp    304585 <Format_Output+0x585>
  304559:	0f 1f 80 00 00 00 00 	nopl   0x0(%rax)
  304560:	83 ee 01             	sub    $0x1,%esi
  304563:	49 89 fb             	mov    %rdi,%r11
  304566:	31 d2                	xor    %edx,%edx
  304568:	41 83 e9 01          	sub    $0x1,%r9d
  30456c:	49 8d 7b ff          	lea    -0x1(%r11),%rdi
  304570:	49 f7 f0             	div    %r8
  304573:	45 85 c9             	test   %r9d,%r9d
  304576:	41 0f b6 14 14       	movzbl (%r12,%rdx,1),%edx
  30457b:	41 88 53 ff          	mov    %dl,-0x1(%r11)
  30457f:	0f 8e 13 01 00 00    	jle    304698 <Format_Output+0x698>
  304585:	85 f6                	test   %esi,%esi
  304587:	75 d7                	jne    304560 <Format_Output+0x560>
  304589:	4c 8d 5f ff          	lea    -0x1(%rdi),%r11
  30458d:	c6 47 ff 5f          	movb   $0x5f,-0x1(%rdi)
  304591:	8b bd 64 ff ff ff    	mov    -0x9c(%rbp),%edi
  304597:	41 83 e9 01          	sub    $0x1,%r9d
  30459b:	8d 77 ff             	lea    -0x1(%rdi),%esi
  30459e:	eb c6                	jmp    304566 <Format_Output+0x566>
  3045a0:	eb fe                	jmp    3045a0 <Format_Output+0x5a0>
  3045a2:	66 0f 1f 44 00 00    	nopw   0x0(%rax,%rax,1)
  3045a8:	89 85 50 ff ff ff    	mov    %eax,-0xb0(%rbp)
  3045ae:	89 8d 40 ff ff ff    	mov    %ecx,-0xc0(%rbp)
  3045b4:	be 20 00 00 00       	mov    $0x20,%esi
  3045b9:	4c 89 95 70 ff ff ff 	mov    %r10,-0x90(%rbp)
  3045c0:	4c 89 ff             	mov    %r15,%rdi
  3045c3:	41 ff 17             	callq  *(%r15)
  3045c6:	8b 85 50 ff ff ff    	mov    -0xb0(%rbp),%eax
  3045cc:	4c 8b 95 70 ff ff ff 	mov    -0x90(%rbp),%r10
  3045d3:	8b 8d 40 ff ff ff    	mov    -0xc0(%rbp),%ecx
  3045d9:	83 e8 01             	sub    $0x1,%eax
  3045dc:	39 85 78 ff ff ff    	cmp    %eax,-0x88(%rbp)
  3045e2:	7c c4                	jl     3045a8 <Format_Output+0x5a8>
  3045e4:	8b 85 78 ff ff ff    	mov    -0x88(%rbp),%eax
  3045ea:	89 85 70 ff ff ff    	mov    %eax,-0x90(%rbp)
  3045f0:	e9 e9 fe ff ff       	jmpq   3044de <Format_Output+0x4de>
  3045f5:	0f 1f 00             	nopl   (%rax)
  3045f8:	4d 85 d2             	test   %r10,%r10
  3045fb:	8d 46 ff             	lea    -0x1(%rsi),%eax
  3045fe:	0f 85 41 fe ff ff    	jne    304445 <Format_Output+0x445>
  304604:	31 c0                	xor    %eax,%eax
  304606:	be 01 00 00 00       	mov    $0x1,%esi
  30460b:	e9 35 fe ff ff       	jmpq   304445 <Format_Output+0x445>
  304610:	4c 89 95 40 ff ff ff 	mov    %r10,-0xc0(%rbp)
  304617:	be 2d 00 00 00       	mov    $0x2d,%esi
  30461c:	4c 89 ff             	mov    %r15,%rdi
  30461f:	41 ff 17             	callq  *(%r15)
  304622:	4c 8b 95 40 ff ff ff 	mov    -0xc0(%rbp),%r10
  304629:	e9 cc fe ff ff       	jmpq   3044fa <Format_Output+0x4fa>
  30462e:	66 90                	xchg   %ax,%ax
  304630:	8b 85 70 ff ff ff    	mov    -0x90(%rbp),%eax
  304636:	39 85 68 ff ff ff    	cmp    %eax,-0x98(%rbp)
  30463c:	0f 8d d9 fe ff ff    	jge    30451b <Format_Output+0x51b>
  304642:	39 85 78 ff ff ff    	cmp    %eax,-0x88(%rbp)
  304648:	0f 8d cd fe ff ff    	jge    30451b <Format_Output+0x51b>
  30464e:	66 90                	xchg   %ax,%ax
  304650:	89 85 58 ff ff ff    	mov    %eax,-0xa8(%rbp)
  304656:	4c 89 95 70 ff ff ff 	mov    %r10,-0x90(%rbp)
  30465d:	be 30 00 00 00       	mov    $0x30,%esi
  304662:	4c 89 ff             	mov    %r15,%rdi
  304665:	41 ff 17             	callq  *(%r15)
  304668:	8b 85 58 ff ff ff    	mov    -0xa8(%rbp),%eax
  30466e:	4c 8b 95 70 ff ff ff 	mov    -0x90(%rbp),%r10
  304675:	83 e8 01             	sub    $0x1,%eax
  304678:	39 85 78 ff ff ff    	cmp    %eax,-0x88(%rbp)
  30467e:	7c d0                	jl     304650 <Format_Output+0x650>
  304680:	8b 85 78 ff ff ff    	mov    -0x88(%rbp),%eax
  304686:	89 85 70 ff ff ff    	mov    %eax,-0x90(%rbp)
  30468c:	e9 8a fe ff ff       	jmpq   30451b <Format_Output+0x51b>
  304691:	0f 1f 80 00 00 00 00 	nopl   0x0(%rax)
  304698:	48 8d 45 a0          	lea    -0x60(%rbp),%rax
  30469c:	48 85 c9             	test   %rcx,%rcx
  30469f:	4c 8d 24 08          	lea    (%rax,%rcx,1),%r12
  3046a3:	74 41                	je     3046e6 <Format_Output+0x6e6>
  3046a5:	48 89 9d 68 ff ff ff 	mov    %rbx,-0x98(%rbp)
  3046ac:	48 89 c3             	mov    %rax,%rbx
  3046af:	4c 89 f0             	mov    %r14,%rax
  3046b2:	4d 89 ee             	mov    %r13,%r14
  3046b5:	4d 89 fd             	mov    %r15,%r13
  3046b8:	49 89 c7             	mov    %rax,%r15
  3046bb:	0f 1f 44 00 00       	nopl   0x0(%rax,%rax,1)
  3046c0:	0f be 33             	movsbl (%rbx),%esi
  3046c3:	48 83 c3 01          	add    $0x1,%rbx
  3046c7:	4c 89 ef             	mov    %r13,%rdi
  3046ca:	41 ff 55 00          	callq  *0x0(%r13)
  3046ce:	4c 39 e3             	cmp    %r12,%rbx
  3046d1:	75 ed                	jne    3046c0 <Format_Output+0x6c0>
  3046d3:	48 8b 9d 68 ff ff ff 	mov    -0x98(%rbp),%rbx
  3046da:	4c 89 f8             	mov    %r15,%rax
  3046dd:	4d 89 ef             	mov    %r13,%r15
  3046e0:	4d 89 f5             	mov    %r14,%r13
  3046e3:	49 89 c6             	mov    %rax,%r14
  3046e6:	f6 45 8c 02          	testb  $0x2,-0x74(%rbp)
  3046ea:	74 44                	je     304730 <Format_Output+0x730>
  3046ec:	8b 85 70 ff ff ff    	mov    -0x90(%rbp),%eax
  3046f2:	39 85 78 ff ff ff    	cmp    %eax,-0x88(%rbp)
  3046f8:	7d 36                	jge    304730 <Format_Output+0x730>
  3046fa:	be 20 00 00 00       	mov    $0x20,%esi
  3046ff:	4c 89 ff             	mov    %r15,%rdi
  304702:	41 ff 17             	callq  *(%r15)
  304705:	44 8b a5 70 ff ff ff 	mov    -0x90(%rbp),%r12d
  30470c:	41 83 ec 01          	sub    $0x1,%r12d
  304710:	eb 15                	jmp    304727 <Format_Output+0x727>
  304712:	66 0f 1f 44 00 00    	nopw   0x0(%rax,%rax,1)
  304718:	41 83 ec 01          	sub    $0x1,%r12d
  30471c:	be 20 00 00 00       	mov    $0x20,%esi
  304721:	4c 89 ff             	mov    %r15,%rdi
  304724:	41 ff 17             	callq  *(%r15)
  304727:	44 3b a5 78 ff ff ff 	cmp    -0x88(%rbp),%r12d
  30472e:	75 e8                	jne    304718 <Format_Output+0x718>
  304730:	41 0f be 45 01       	movsbl 0x1(%r13),%eax
  304735:	45 31 e4             	xor    %r12d,%r12d
  304738:	49 89 dd             	mov    %rbx,%r13
  30473b:	e9 00 f9 ff ff       	jmpq   304040 <Format_Output+0x40>
  304740:	31 f6                	xor    %esi,%esi
  304742:	e9 d6 fc ff ff       	jmpq   30441d <Format_Output+0x41d>
  304747:	8b 45 84             	mov    -0x7c(%rbp),%eax
  30474a:	8d 7e 01             	lea    0x1(%rsi),%edi
  30474d:	39 c7                	cmp    %eax,%edi
  30474f:	0f 4c f8             	cmovl  %eax,%edi
  304752:	e9 e1 fc ff ff       	jmpq   304438 <Format_Output+0x438>
  304757:	4c 89 95 58 ff ff ff 	mov    %r10,-0xa8(%rbp)
  30475e:	be 30 00 00 00       	mov    $0x30,%esi
  304763:	4c 89 ff             	mov    %r15,%rdi
  304766:	41 ff 17             	callq  *(%r15)
  304769:	83 bd 60 ff ff ff 01 	cmpl   $0x1,-0xa0(%rbp)
  304770:	4c 89 ff             	mov    %r15,%rdi
  304773:	19 f6                	sbb    %esi,%esi
  304775:	83 e6 20             	and    $0x20,%esi
  304778:	83 c6 58             	add    $0x58,%esi
  30477b:	41 ff 17             	callq  *(%r15)
  30477e:	4c 8b 95 58 ff ff ff 	mov    -0xa8(%rbp),%r10
  304785:	e9 84 fd ff ff       	jmpq   30450e <Format_Output+0x50e>
  30478a:	4c 89 95 40 ff ff ff 	mov    %r10,-0xc0(%rbp)
  304791:	be 20 00 00 00       	mov    $0x20,%esi
  304796:	4c 89 ff             	mov    %r15,%rdi
  304799:	41 ff 17             	callq  *(%r15)
  30479c:	4c 8b 95 40 ff ff ff 	mov    -0xc0(%rbp),%r10
  3047a3:	e9 52 fd ff ff       	jmpq   3044fa <Format_Output+0x4fa>
  3047a8:	4c 89 95 40 ff ff ff 	mov    %r10,-0xc0(%rbp)
  3047af:	be 2b 00 00 00       	mov    $0x2b,%esi
  3047b4:	4c 89 ff             	mov    %r15,%rdi
  3047b7:	41 ff 17             	callq  *(%r15)
  3047ba:	4c 8b 95 40 ff ff ff 	mov    -0xc0(%rbp),%r10
  3047c1:	e9 34 fd ff ff       	jmpq   3044fa <Format_Output+0x4fa>
  3047c6:	66 2e 0f 1f 84 00 00 	nopw   %cs:0x0(%rax,%rax,1)
  3047cd:	00 00 00 
  3047d0:	49 8b 46 08          	mov    0x8(%r14),%rax
  3047d4:	48 8d 50 08          	lea    0x8(%rax),%rdx
  3047d8:	49 89 56 08          	mov    %rdx,0x8(%r14)
  3047dc:	e9 c5 fb ff ff       	jmpq   3043a6 <Format_Output+0x3a6>
  3047e1:	49 f7 da             	neg    %r10
  3047e4:	b1 01                	mov    $0x1,%cl
  3047e6:	e9 0d fc ff ff       	jmpq   3043f8 <Format_Output+0x3f8>
  3047eb:	41 bc 0a 00 00 00    	mov    $0xa,%r12d
  3047f1:	8b 45 80             	mov    -0x80(%rbp),%eax
  3047f4:	41 8b 16             	mov    (%r14),%edx
  3047f7:	85 c0                	test   %eax,%eax
  3047f9:	0f 84 b5 01 00 00    	je     3049b4 <Format_Output+0x9b4>
  3047ff:	83 f8 01             	cmp    $0x1,%eax
  304802:	0f 84 93 01 00 00    	je     30499b <Format_Output+0x99b>
  304808:	83 f8 ff             	cmp    $0xffffffff,%eax
  30480b:	0f 84 70 01 00 00    	je     304981 <Format_Output+0x981>
  304811:	83 fa 30             	cmp    $0x30,%edx
  304814:	0f 83 56 01 00 00    	jae    304970 <Format_Output+0x970>
  30481a:	89 d0                	mov    %edx,%eax
  30481c:	49 03 46 10          	add    0x10(%r14),%rax
  304820:	83 c2 08             	add    $0x8,%edx
  304823:	41 89 16             	mov    %edx,(%r14)
  304826:	44 0f b6 10          	movzbl (%rax),%r10d
  30482a:	e9 87 fb ff ff       	jmpq   3043b6 <Format_Output+0x3b6>
  30482f:	41 8b 16             	mov    (%r14),%edx
  304832:	83 fa 30             	cmp    $0x30,%edx
  304835:	0f 83 1c 01 00 00    	jae    304957 <Format_Output+0x957>
  30483b:	89 d0                	mov    %edx,%eax
  30483d:	49 03 46 10          	add    0x10(%r14),%rax
  304841:	83 c2 08             	add    $0x8,%edx
  304844:	41 89 16             	mov    %edx,(%r14)
  304847:	48 8b 08             	mov    (%rax),%rcx
  30484a:	48 b8 58 eb 33 00 00 	movabs $0x33eb58,%rax
  304851:	00 00 00 
  304854:	48 85 c9             	test   %rcx,%rcx
  304857:	48 0f 44 c8          	cmove  %rax,%rcx
  30485b:	48 b8 70 d2 30 00 00 	movabs $0x30d270,%rax
  304862:	00 00 00 
  304865:	48 89 cf             	mov    %rcx,%rdi
  304868:	48 89 8d 78 ff ff ff 	mov    %rcx,-0x88(%rbp)
  30486f:	ff d0                	callq  *%rax
  304871:	48 8b 8d 78 ff ff ff 	mov    -0x88(%rbp),%rcx
  304878:	89 c2                	mov    %eax,%edx
  30487a:	3b 55 84             	cmp    -0x7c(%rbp),%edx
  30487d:	7e 09                	jle    304888 <Format_Output+0x888>
  30487f:	8b 45 84             	mov    -0x7c(%rbp),%eax
  304882:	83 f8 ff             	cmp    $0xffffffff,%eax
  304885:	0f 45 d0             	cmovne %eax,%edx
  304888:	39 55 88             	cmp    %edx,-0x78(%rbp)
  30488b:	7e 53                	jle    3048e0 <Format_Output+0x8e0>
  30488d:	f6 45 8c 02          	testb  $0x2,-0x74(%rbp)
  304891:	75 4d                	jne    3048e0 <Format_Output+0x8e0>
  304893:	8b 45 8c             	mov    -0x74(%rbp),%eax
  304896:	83 e0 01             	and    $0x1,%eax
  304899:	83 f8 01             	cmp    $0x1,%eax
  30489c:	45 19 e4             	sbb    %r12d,%r12d
  30489f:	41 83 e4 f0          	and    $0xfffffff0,%r12d
  3048a3:	41 83 c4 30          	add    $0x30,%r12d
  3048a7:	66 0f 1f 84 00 00 00 	nopw   0x0(%rax,%rax,1)
  3048ae:	00 00 
  3048b0:	48 89 8d 70 ff ff ff 	mov    %rcx,-0x90(%rbp)
  3048b7:	89 95 78 ff ff ff    	mov    %edx,-0x88(%rbp)
  3048bd:	44 89 e6             	mov    %r12d,%esi
  3048c0:	4c 89 ff             	mov    %r15,%rdi
  3048c3:	41 ff 17             	callq  *(%r15)
  3048c6:	83 6d 88 01          	subl   $0x1,-0x78(%rbp)
  3048ca:	8b 95 78 ff ff ff    	mov    -0x88(%rbp),%edx
  3048d0:	3b 55 88             	cmp    -0x78(%rbp),%edx
  3048d3:	48 8b 8d 70 ff ff ff 	mov    -0x90(%rbp),%rcx
  3048da:	7c d4                	jl     3048b0 <Format_Output+0x8b0>
  3048dc:	89 55 88             	mov    %edx,-0x78(%rbp)
  3048df:	90                   	nop
  3048e0:	8d 42 ff             	lea    -0x1(%rdx),%eax
  3048e3:	85 d2                	test   %edx,%edx
  3048e5:	4c 8d 64 01 01       	lea    0x1(%rcx,%rax,1),%r12
  3048ea:	74 30                	je     30491c <Format_Output+0x91c>
  3048ec:	0f 1f 40 00          	nopl   0x0(%rax)
  3048f0:	0f be 31             	movsbl (%rcx),%esi
  3048f3:	48 83 c1 01          	add    $0x1,%rcx
  3048f7:	89 95 70 ff ff ff    	mov    %edx,-0x90(%rbp)
  3048fd:	48 89 8d 78 ff ff ff 	mov    %rcx,-0x88(%rbp)
  304904:	4c 89 ff             	mov    %r15,%rdi
  304907:	41 ff 17             	callq  *(%r15)
  30490a:	48 8b 8d 78 ff ff ff 	mov    -0x88(%rbp),%rcx
  304911:	8b 95 70 ff ff ff    	mov    -0x90(%rbp),%edx
  304917:	4c 39 e1             	cmp    %r12,%rcx
  30491a:	75 d4                	jne    3048f0 <Format_Output+0x8f0>
  30491c:	39 55 88             	cmp    %edx,-0x78(%rbp)
  30491f:	0f 8e 0b fe ff ff    	jle    304730 <Format_Output+0x730>
  304925:	f6 45 8c 02          	testb  $0x2,-0x74(%rbp)
  304929:	0f 84 01 fe ff ff    	je     304730 <Format_Output+0x730>
  30492f:	44 8b 65 88          	mov    -0x78(%rbp),%r12d
  304933:	0f 1f 44 00 00       	nopl   0x0(%rax,%rax,1)
  304938:	89 55 88             	mov    %edx,-0x78(%rbp)
  30493b:	be 20 00 00 00       	mov    $0x20,%esi
  304940:	4c 89 ff             	mov    %r15,%rdi
  304943:	41 ff 17             	callq  *(%r15)
  304946:	8b 55 88             	mov    -0x78(%rbp),%edx
  304949:	41 83 ec 01          	sub    $0x1,%r12d
  30494d:	44 39 e2             	cmp    %r12d,%edx
  304950:	7c e6                	jl     304938 <Format_Output+0x938>
  304952:	e9 d9 fd ff ff       	jmpq   304730 <Format_Output+0x730>
  304957:	49 8b 46 08          	mov    0x8(%r14),%rax
  30495b:	48 8d 50 08          	lea    0x8(%rax),%rdx
  30495f:	49 89 56 08          	mov    %rdx,0x8(%r14)
  304963:	e9 df fe ff ff       	jmpq   304847 <Format_Output+0x847>
  304968:	0f 1f 84 00 00 00 00 	nopl   0x0(%rax,%rax,1)
  30496f:	00 
  304970:	49 8b 46 08          	mov    0x8(%r14),%rax
  304974:	48 8d 50 08          	lea    0x8(%rax),%rdx
  304978:	49 89 56 08          	mov    %rdx,0x8(%r14)
  30497c:	e9 a5 fe ff ff       	jmpq   304826 <Format_Output+0x826>
  304981:	83 fa 30             	cmp    $0x30,%edx
  304984:	73 47                	jae    3049cd <Format_Output+0x9cd>
  304986:	89 d0                	mov    %edx,%eax
  304988:	49 03 46 10          	add    0x10(%r14),%rax
  30498c:	83 c2 08             	add    $0x8,%edx
  30498f:	41 89 16             	mov    %edx,(%r14)
  304992:	44 0f b7 10          	movzwl (%rax),%r10d
  304996:	e9 1b fa ff ff       	jmpq   3043b6 <Format_Output+0x3b6>
  30499b:	83 fa 30             	cmp    $0x30,%edx
  30499e:	73 3b                	jae    3049db <Format_Output+0x9db>
  3049a0:	89 d0                	mov    %edx,%eax
  3049a2:	49 03 46 10          	add    0x10(%r14),%rax
  3049a6:	83 c2 08             	add    $0x8,%edx
  3049a9:	41 89 16             	mov    %edx,(%r14)
  3049ac:	4c 8b 10             	mov    (%rax),%r10
  3049af:	e9 02 fa ff ff       	jmpq   3043b6 <Format_Output+0x3b6>
  3049b4:	83 fa 30             	cmp    $0x30,%edx
  3049b7:	73 30                	jae    3049e9 <Format_Output+0x9e9>
  3049b9:	89 d0                	mov    %edx,%eax
  3049bb:	49 03 46 10          	add    0x10(%r14),%rax
  3049bf:	83 c2 08             	add    $0x8,%edx
  3049c2:	41 89 16             	mov    %edx,(%r14)
  3049c5:	44 8b 10             	mov    (%rax),%r10d
  3049c8:	e9 e9 f9 ff ff       	jmpq   3043b6 <Format_Output+0x3b6>
  3049cd:	49 8b 46 08          	mov    0x8(%r14),%rax
  3049d1:	48 8d 50 08          	lea    0x8(%rax),%rdx
  3049d5:	49 89 56 08          	mov    %rdx,0x8(%r14)
  3049d9:	eb b7                	jmp    304992 <Format_Output+0x992>
  3049db:	49 8b 46 08          	mov    0x8(%r14),%rax
  3049df:	48 8d 50 08          	lea    0x8(%rax),%rdx
  3049e3:	49 89 56 08          	mov    %rdx,0x8(%r14)
  3049e7:	eb c3                	jmp    3049ac <Format_Output+0x9ac>
  3049e9:	49 8b 46 08          	mov    0x8(%r14),%rax
  3049ed:	48 8d 50 08          	lea    0x8(%rax),%rdx
  3049f1:	49 89 56 08          	mov    %rdx,0x8(%r14)
  3049f5:	eb ce                	jmp    3049c5 <Format_Output+0x9c5>
  3049f7:	81 4d 8c 80 00 00 00 	orl    $0x80,-0x74(%rbp)
  3049fe:	41 bc 10 00 00 00    	mov    $0x10,%r12d
  304a04:	e9 e8 fd ff ff       	jmpq   3047f1 <Format_Output+0x7f1>
  304a09:	41 bc 08 00 00 00    	mov    $0x8,%r12d
  304a0f:	e9 dd fd ff ff       	jmpq   3047f1 <Format_Output+0x7f1>
  304a14:	8b 45 80             	mov    -0x80(%rbp),%eax
  304a17:	41 8b 16             	mov    (%r14),%edx
  304a1a:	85 c0                	test   %eax,%eax
  304a1c:	0f 84 ea 00 00 00    	je     304b0c <Format_Output+0xb0c>
  304a22:	83 f8 01             	cmp    $0x1,%eax
  304a25:	0f 84 b6 00 00 00    	je     304ae1 <Format_Output+0xae1>
  304a2b:	83 f8 ff             	cmp    $0xffffffff,%eax
  304a2e:	0f 84 84 00 00 00    	je     304ab8 <Format_Output+0xab8>
  304a34:	83 fa 30             	cmp    $0x30,%edx
  304a37:	73 71                	jae    304aaa <Format_Output+0xaaa>
  304a39:	89 d0                	mov    %edx,%eax
  304a3b:	49 03 46 10          	add    0x10(%r14),%rax
  304a3f:	83 c2 08             	add    $0x8,%edx
  304a42:	41 89 16             	mov    %edx,(%r14)
  304a45:	48 8b 00             	mov    (%rax),%rax
  304a48:	45 31 e4             	xor    %r12d,%r12d
  304a4b:	c7 45 80 fe ff ff ff 	movl   $0xfffffffe,-0x80(%rbp)
  304a52:	c6 00 00             	movb   $0x0,(%rax)
  304a55:	41 0f be 45 01       	movsbl 0x1(%r13),%eax
  304a5a:	49 89 dd             	mov    %rbx,%r13
  304a5d:	e9 de f5 ff ff       	jmpq   304040 <Format_Output+0x40>
  304a62:	8b 45 80             	mov    -0x80(%rbp),%eax
  304a65:	83 4d 8c 40          	orl    $0x40,-0x74(%rbp)
  304a69:	41 8b 16             	mov    (%r14),%edx
  304a6c:	85 c0                	test   %eax,%eax
  304a6e:	0f 84 7f 01 00 00    	je     304bf3 <Format_Output+0xbf3>
  304a74:	83 f8 01             	cmp    $0x1,%eax
  304a77:	0f 84 57 01 00 00    	je     304bd4 <Format_Output+0xbd4>
  304a7d:	83 f8 ff             	cmp    $0xffffffff,%eax
  304a80:	0f 84 2e 01 00 00    	je     304bb4 <Format_Output+0xbb4>
  304a86:	83 fa 30             	cmp    $0x30,%edx
  304a89:	0f 83 14 01 00 00    	jae    304ba3 <Format_Output+0xba3>
  304a8f:	89 d0                	mov    %edx,%eax
  304a91:	49 03 46 10          	add    0x10(%r14),%rax
  304a95:	83 c2 08             	add    $0x8,%edx
  304a98:	41 89 16             	mov    %edx,(%r14)
  304a9b:	4c 0f be 10          	movsbq (%rax),%r10
  304a9f:	41 bc 0a 00 00 00    	mov    $0xa,%r12d
  304aa5:	e9 0c f9 ff ff       	jmpq   3043b6 <Format_Output+0x3b6>
  304aaa:	49 8b 46 08          	mov    0x8(%r14),%rax
  304aae:	48 8d 50 08          	lea    0x8(%rax),%rdx
  304ab2:	49 89 56 08          	mov    %rdx,0x8(%r14)
  304ab6:	eb 8d                	jmp    304a45 <Format_Output+0xa45>
  304ab8:	83 fa 30             	cmp    $0x30,%edx
  304abb:	73 79                	jae    304b36 <Format_Output+0xb36>
  304abd:	89 d0                	mov    %edx,%eax
  304abf:	49 03 46 10          	add    0x10(%r14),%rax
  304ac3:	83 c2 08             	add    $0x8,%edx
  304ac6:	41 89 16             	mov    %edx,(%r14)
  304ac9:	48 8b 00             	mov    (%rax),%rax
  304acc:	31 d2                	xor    %edx,%edx
  304ace:	45 31 e4             	xor    %r12d,%r12d
  304ad1:	66 89 10             	mov    %dx,(%rax)
  304ad4:	41 0f be 45 01       	movsbl 0x1(%r13),%eax
  304ad9:	49 89 dd             	mov    %rbx,%r13
  304adc:	e9 5f f5 ff ff       	jmpq   304040 <Format_Output+0x40>
  304ae1:	83 fa 30             	cmp    $0x30,%edx
  304ae4:	73 5e                	jae    304b44 <Format_Output+0xb44>
  304ae6:	89 d0                	mov    %edx,%eax
  304ae8:	49 03 46 10          	add    0x10(%r14),%rax
  304aec:	83 c2 08             	add    $0x8,%edx
  304aef:	41 89 16             	mov    %edx,(%r14)
  304af2:	48 8b 00             	mov    (%rax),%rax
  304af5:	45 31 e4             	xor    %r12d,%r12d
  304af8:	48 c7 00 00 00 00 00 	movq   $0x0,(%rax)
  304aff:	41 0f be 45 01       	movsbl 0x1(%r13),%eax
  304b04:	49 89 dd             	mov    %rbx,%r13
  304b07:	e9 34 f5 ff ff       	jmpq   304040 <Format_Output+0x40>
  304b0c:	83 fa 30             	cmp    $0x30,%edx
  304b0f:	73 41                	jae    304b52 <Format_Output+0xb52>
  304b11:	89 d0                	mov    %edx,%eax
  304b13:	49 03 46 10          	add    0x10(%r14),%rax
  304b17:	83 c2 08             	add    $0x8,%edx
  304b1a:	41 89 16             	mov    %edx,(%r14)
  304b1d:	48 8b 00             	mov    (%rax),%rax
  304b20:	45 31 e4             	xor    %r12d,%r12d
  304b23:	c7 00 00 00 00 00    	movl   $0x0,(%rax)
  304b29:	41 0f be 45 01       	movsbl 0x1(%r13),%eax
  304b2e:	49 89 dd             	mov    %rbx,%r13
  304b31:	e9 0a f5 ff ff       	jmpq   304040 <Format_Output+0x40>
  304b36:	49 8b 46 08          	mov    0x8(%r14),%rax
  304b3a:	48 8d 50 08          	lea    0x8(%rax),%rdx
  304b3e:	49 89 56 08          	mov    %rdx,0x8(%r14)
  304b42:	eb 85                	jmp    304ac9 <Format_Output+0xac9>
  304b44:	49 8b 46 08          	mov    0x8(%r14),%rax
  304b48:	48 8d 50 08          	lea    0x8(%rax),%rdx
  304b4c:	49 89 56 08          	mov    %rdx,0x8(%r14)
  304b50:	eb a0                	jmp    304af2 <Format_Output+0xaf2>
  304b52:	49 8b 46 08          	mov    0x8(%r14),%rax
  304b56:	48 8d 50 08          	lea    0x8(%rax),%rdx
  304b5a:	49 89 56 08          	mov    %rdx,0x8(%r14)
  304b5e:	eb bd                	jmp    304b1d <Format_Output+0xb1d>
  304b60:	41 8b 16             	mov    (%r14),%edx
  304b63:	83 fa 30             	cmp    $0x30,%edx
  304b66:	73 1f                	jae    304b87 <Format_Output+0xb87>
  304b68:	89 d0                	mov    %edx,%eax
  304b6a:	49 03 46 10          	add    0x10(%r14),%rax
  304b6e:	83 c2 08             	add    $0x8,%edx
  304b71:	41 89 16             	mov    %edx,(%r14)
  304b74:	8b 00                	mov    (%rax),%eax
  304b76:	ba 01 00 00 00       	mov    $0x1,%edx
  304b7b:	48 8d 4d 9f          	lea    -0x61(%rbp),%rcx
  304b7f:	88 45 9f             	mov    %al,-0x61(%rbp)
  304b82:	e9 f3 fc ff ff       	jmpq   30487a <Format_Output+0x87a>
  304b87:	49 8b 46 08          	mov    0x8(%r14),%rax
  304b8b:	48 8d 50 08          	lea    0x8(%rax),%rdx
  304b8f:	49 89 56 08          	mov    %rdx,0x8(%r14)
  304b93:	eb df                	jmp    304b74 <Format_Output+0xb74>
  304b95:	0f be f0             	movsbl %al,%esi
  304b98:	4c 89 ff             	mov    %r15,%rdi
  304b9b:	41 ff 17             	callq  *(%r15)
  304b9e:	e9 8d fb ff ff       	jmpq   304730 <Format_Output+0x730>
  304ba3:	49 8b 46 08          	mov    0x8(%r14),%rax
  304ba7:	48 8d 50 08          	lea    0x8(%rax),%rdx
  304bab:	49 89 56 08          	mov    %rdx,0x8(%r14)
  304baf:	e9 e7 fe ff ff       	jmpq   304a9b <Format_Output+0xa9b>
  304bb4:	83 fa 30             	cmp    $0x30,%edx
  304bb7:	73 59                	jae    304c12 <Format_Output+0xc12>
  304bb9:	89 d0                	mov    %edx,%eax
  304bbb:	49 03 46 10          	add    0x10(%r14),%rax
  304bbf:	83 c2 08             	add    $0x8,%edx
  304bc2:	41 89 16             	mov    %edx,(%r14)
  304bc5:	4c 0f bf 10          	movswq (%rax),%r10
  304bc9:	41 bc 0a 00 00 00    	mov    $0xa,%r12d
  304bcf:	e9 e2 f7 ff ff       	jmpq   3043b6 <Format_Output+0x3b6>
  304bd4:	83 fa 30             	cmp    $0x30,%edx
  304bd7:	73 47                	jae    304c20 <Format_Output+0xc20>
  304bd9:	89 d0                	mov    %edx,%eax
  304bdb:	49 03 46 10          	add    0x10(%r14),%rax
  304bdf:	83 c2 08             	add    $0x8,%edx
  304be2:	41 89 16             	mov    %edx,(%r14)
  304be5:	4c 8b 10             	mov    (%rax),%r10
  304be8:	41 bc 0a 00 00 00    	mov    $0xa,%r12d
  304bee:	e9 c3 f7 ff ff       	jmpq   3043b6 <Format_Output+0x3b6>
  304bf3:	83 fa 30             	cmp    $0x30,%edx
  304bf6:	73 36                	jae    304c2e <Format_Output+0xc2e>
  304bf8:	89 d0                	mov    %edx,%eax
  304bfa:	49 03 46 10          	add    0x10(%r14),%rax
  304bfe:	83 c2 08             	add    $0x8,%edx
  304c01:	41 89 16             	mov    %edx,(%r14)
  304c04:	4c 63 10             	movslq (%rax),%r10
  304c07:	41 bc 0a 00 00 00    	mov    $0xa,%r12d
  304c0d:	e9 a4 f7 ff ff       	jmpq   3043b6 <Format_Output+0x3b6>
  304c12:	49 8b 46 08          	mov    0x8(%r14),%rax
  304c16:	48 8d 50 08          	lea    0x8(%rax),%rdx
  304c1a:	49 89 56 08          	mov    %rdx,0x8(%r14)
  304c1e:	eb a5                	jmp    304bc5 <Format_Output+0xbc5>
  304c20:	49 8b 46 08          	mov    0x8(%r14),%rax
  304c24:	48 8d 50 08          	lea    0x8(%rax),%rdx
  304c28:	49 89 56 08          	mov    %rdx,0x8(%r14)
  304c2c:	eb b7                	jmp    304be5 <Format_Output+0xbe5>
  304c2e:	49 8b 46 08          	mov    0x8(%r14),%rax
  304c32:	48 8d 50 08          	lea    0x8(%rax),%rdx
  304c36:	49 89 56 08          	mov    %rdx,0x8(%r14)
  304c3a:	eb c8                	jmp    304c04 <Format_Output+0xc04>
  304c3c:	0f 1f 40 00          	nopl   0x0(%rax)

0000000000304c40 <put_dec_trunc>:
  304c40:	89 f1                	mov    %esi,%ecx
  304c42:	89 f2                	mov    %esi,%edx
  304c44:	41 89 f0             	mov    %esi,%r8d
  304c47:	c1 e9 04             	shr    $0x4,%ecx
  304c4a:	c1 ea 08             	shr    $0x8,%edx
  304c4d:	41 c1 e8 0c          	shr    $0xc,%r8d
  304c51:	83 e1 0f             	and    $0xf,%ecx
  304c54:	83 e2 0f             	and    $0xf,%edx
  304c57:	83 e6 0f             	and    $0xf,%esi
  304c5a:	8d 04 11             	lea    (%rcx,%rdx,1),%eax
  304c5d:	55                   	push   %rbp
  304c5e:	44 01 c0             	add    %r8d,%eax
  304c61:	48 89 e5             	mov    %rsp,%rbp
  304c64:	8d 04 40             	lea    (%rax,%rax,2),%eax
  304c67:	8d 34 46             	lea    (%rsi,%rax,2),%esi
  304c6a:	69 c6 cd 00 00 00    	imul   $0xcd,%esi,%eax
  304c70:	c1 e8 0b             	shr    $0xb,%eax
  304c73:	44 8d 0c 80          	lea    (%rax,%rax,4),%r9d
  304c77:	45 01 c9             	add    %r9d,%r9d
  304c7a:	44 29 ce             	sub    %r9d,%esi
  304c7d:	83 c6 30             	add    $0x30,%esi
  304c80:	40 88 37             	mov    %sil,(%rdi)
  304c83:	43 8d 34 c0          	lea    (%r8,%r8,8),%esi
  304c87:	01 f1                	add    %esi,%ecx
  304c89:	8d 34 92             	lea    (%rdx,%rdx,4),%esi
  304c8c:	01 f1                	add    %esi,%ecx
  304c8e:	01 c1                	add    %eax,%ecx
  304c90:	74 7e                	je     304d10 <put_dec_trunc+0xd0>
  304c92:	69 f1 cd 00 00 00    	imul   $0xcd,%ecx,%esi
  304c98:	c1 ee 0b             	shr    $0xb,%esi
  304c9b:	8d 04 b6             	lea    (%rsi,%rsi,4),%eax
  304c9e:	01 c0                	add    %eax,%eax
  304ca0:	29 c1                	sub    %eax,%ecx
  304ca2:	8d 04 56             	lea    (%rsi,%rdx,2),%eax
  304ca5:	83 c1 30             	add    $0x30,%ecx
  304ca8:	89 c2                	mov    %eax,%edx
  304caa:	88 4f 01             	mov    %cl,0x1(%rdi)
  304cad:	44 09 c2             	or     %r8d,%edx
  304cb0:	74 4e                	je     304d00 <put_dec_trunc+0xc0>
  304cb2:	8d 14 40             	lea    (%rax,%rax,2),%edx
  304cb5:	8d 14 90             	lea    (%rax,%rdx,4),%edx
  304cb8:	c1 ea 07             	shr    $0x7,%edx
  304cbb:	8d 0c 92             	lea    (%rdx,%rdx,4),%ecx
  304cbe:	01 c9                	add    %ecx,%ecx
  304cc0:	29 c8                	sub    %ecx,%eax
  304cc2:	83 c0 30             	add    $0x30,%eax
  304cc5:	88 47 02             	mov    %al,0x2(%rdi)
  304cc8:	42 8d 04 82          	lea    (%rdx,%r8,4),%eax
  304ccc:	85 c0                	test   %eax,%eax
  304cce:	74 50                	je     304d20 <put_dec_trunc+0xe0>
  304cd0:	69 d0 cd 00 00 00    	imul   $0xcd,%eax,%edx
  304cd6:	c1 ea 0b             	shr    $0xb,%edx
  304cd9:	8d 0c 92             	lea    (%rdx,%rdx,4),%ecx
  304cdc:	01 c9                	add    %ecx,%ecx
  304cde:	29 c8                	sub    %ecx,%eax
  304ce0:	83 c0 30             	add    $0x30,%eax
  304ce3:	85 d2                	test   %edx,%edx
  304ce5:	88 47 03             	mov    %al,0x3(%rdi)
  304ce8:	48 8d 47 04          	lea    0x4(%rdi),%rax
  304cec:	74 0a                	je     304cf8 <put_dec_trunc+0xb8>
  304cee:	83 c2 30             	add    $0x30,%edx
  304cf1:	48 8d 47 05          	lea    0x5(%rdi),%rax
  304cf5:	88 57 04             	mov    %dl,0x4(%rdi)
  304cf8:	5d                   	pop    %rbp
  304cf9:	c3                   	retq   
  304cfa:	66 0f 1f 44 00 00    	nopw   0x0(%rax,%rax,1)
  304d00:	48 8d 47 02          	lea    0x2(%rdi),%rax
  304d04:	5d                   	pop    %rbp
  304d05:	c3                   	retq   
  304d06:	66 2e 0f 1f 84 00 00 	nopw   %cs:0x0(%rax,%rax,1)
  304d0d:	00 00 00 
  304d10:	48 8d 47 01          	lea    0x1(%rdi),%rax
  304d14:	5d                   	pop    %rbp
  304d15:	c3                   	retq   
  304d16:	66 2e 0f 1f 84 00 00 	nopw   %cs:0x0(%rax,%rax,1)
  304d1d:	00 00 00 
  304d20:	48 8d 47 03          	lea    0x3(%rdi),%rax
  304d24:	5d                   	pop    %rbp
  304d25:	c3                   	retq   
  304d26:	66 2e 0f 1f 84 00 00 	nopw   %cs:0x0(%rax,%rax,1)
  304d2d:	00 00 00 

0000000000304d30 <put_dec>:
  304d30:	55                   	push   %rbp
  304d31:	48 81 fe 9f 86 01 00 	cmp    $0x1869f,%rsi
  304d38:	49 b9 43 78 b4 71 c4 	movabs $0xa7c5ac471b47843,%r9
  304d3f:	5a 7c 0a 
  304d42:	48 89 e5             	mov    %rsp,%rbp
  304d45:	0f 86 e5 00 00 00    	jbe    304e30 <put_dec+0x100>
  304d4b:	0f 1f 44 00 00       	nopl   0x0(%rax,%rax,1)
  304d50:	48 89 f2             	mov    %rsi,%rdx
  304d53:	48 c1 ea 05          	shr    $0x5,%rdx
  304d57:	48 89 d0             	mov    %rdx,%rax
  304d5a:	49 f7 e1             	mul    %r9
  304d5d:	48 c1 ea 07          	shr    $0x7,%rdx
  304d61:	48 69 c2 a0 86 01 00 	imul   $0x186a0,%rdx,%rax
  304d68:	48 29 c6             	sub    %rax,%rsi
  304d6b:	49 89 f2             	mov    %rsi,%r10
  304d6e:	48 89 d6             	mov    %rdx,%rsi
  304d71:	45 89 d0             	mov    %r10d,%r8d
  304d74:	44 89 d0             	mov    %r10d,%eax
  304d77:	44 89 d1             	mov    %r10d,%ecx
  304d7a:	41 c1 e8 04          	shr    $0x4,%r8d
  304d7e:	c1 e8 08             	shr    $0x8,%eax
  304d81:	c1 e9 0c             	shr    $0xc,%ecx
  304d84:	83 e0 0f             	and    $0xf,%eax
  304d87:	41 83 e0 0f          	and    $0xf,%r8d
  304d8b:	41 83 e2 0f          	and    $0xf,%r10d
  304d8f:	41 8d 14 00          	lea    (%r8,%rax,1),%edx
  304d93:	01 ca                	add    %ecx,%edx
  304d95:	8d 14 52             	lea    (%rdx,%rdx,2),%edx
  304d98:	45 8d 14 52          	lea    (%r10,%rdx,2),%r10d
  304d9c:	41 69 d2 cd 00 00 00 	imul   $0xcd,%r10d,%edx
  304da3:	c1 ea 0b             	shr    $0xb,%edx
  304da6:	44 8d 1c 92          	lea    (%rdx,%rdx,4),%r11d
  304daa:	45 01 db             	add    %r11d,%r11d
  304dad:	45 29 da             	sub    %r11d,%r10d
  304db0:	41 83 c2 30          	add    $0x30,%r10d
  304db4:	44 88 17             	mov    %r10b,(%rdi)
  304db7:	44 8d 14 c9          	lea    (%rcx,%rcx,8),%r10d
  304dbb:	45 01 d0             	add    %r10d,%r8d
  304dbe:	44 8d 14 80          	lea    (%rax,%rax,4),%r10d
  304dc2:	45 01 d0             	add    %r10d,%r8d
  304dc5:	41 01 d0             	add    %edx,%r8d
  304dc8:	41 69 d0 cd 00 00 00 	imul   $0xcd,%r8d,%edx
  304dcf:	c1 ea 0b             	shr    $0xb,%edx
  304dd2:	44 8d 14 92          	lea    (%rdx,%rdx,4),%r10d
  304dd6:	8d 14 42             	lea    (%rdx,%rax,2),%edx
  304dd9:	8d 04 52             	lea    (%rdx,%rdx,2),%eax
  304ddc:	45 01 d2             	add    %r10d,%r10d
  304ddf:	45 29 d0             	sub    %r10d,%r8d
  304de2:	8d 04 82             	lea    (%rdx,%rax,4),%eax
  304de5:	41 83 c0 30          	add    $0x30,%r8d
  304de9:	44 88 47 01          	mov    %r8b,0x1(%rdi)
  304ded:	c1 e8 07             	shr    $0x7,%eax
  304df0:	44 8d 04 80          	lea    (%rax,%rax,4),%r8d
  304df4:	45 01 c0             	add    %r8d,%r8d
  304df7:	44 29 c2             	sub    %r8d,%edx
  304dfa:	83 c2 30             	add    $0x30,%edx
  304dfd:	88 57 02             	mov    %dl,0x2(%rdi)
  304e00:	8d 14 88             	lea    (%rax,%rcx,4),%edx
  304e03:	69 c2 cd 00 00 00    	imul   $0xcd,%edx,%eax
  304e09:	c1 e8 0b             	shr    $0xb,%eax
  304e0c:	8d 0c 80             	lea    (%rax,%rax,4),%ecx
  304e0f:	01 c9                	add    %ecx,%ecx
  304e11:	29 ca                	sub    %ecx,%edx
  304e13:	83 c2 30             	add    $0x30,%edx
  304e16:	83 c0 30             	add    $0x30,%eax
  304e19:	48 83 c7 05          	add    $0x5,%rdi
  304e1d:	88 57 fe             	mov    %dl,-0x2(%rdi)
  304e20:	88 47 ff             	mov    %al,-0x1(%rdi)
  304e23:	48 81 fe 9f 86 01 00 	cmp    $0x1869f,%rsi
  304e2a:	0f 87 20 ff ff ff    	ja     304d50 <put_dec+0x20>
  304e30:	5d                   	pop    %rbp
  304e31:	48 b8 40 4c 30 00 00 	movabs $0x304c40,%rax
  304e38:	00 00 00 
  304e3b:	ff e0                	jmpq   *%rax
  304e3d:	0f 1f 00             	nopl   (%rax)

0000000000304e40 <number.isra.1>:
  304e40:	55                   	push   %rbp
  304e41:	48 89 e5             	mov    %rsp,%rbp
  304e44:	41 57                	push   %r15
  304e46:	45 31 ff             	xor    %r15d,%r15d
  304e49:	41 56                	push   %r14
  304e4b:	41 89 ce             	mov    %ecx,%r14d
  304e4e:	41 55                	push   %r13
  304e50:	41 54                	push   %r12
  304e52:	49 89 f4             	mov    %rsi,%r12
  304e55:	53                   	push   %rbx
  304e56:	48 89 fb             	mov    %rdi,%rbx
  304e59:	48 83 ec 70          	sub    $0x70,%rsp
  304e5d:	f6 c1 40             	test   $0x40,%cl
  304e60:	74 0b                	je     304e6d <number.isra.1+0x2d>
  304e62:	45 31 ff             	xor    %r15d,%r15d
  304e65:	41 83 f9 0a          	cmp    $0xa,%r9d
  304e69:	41 0f 95 c7          	setne  %r15b
  304e6d:	45 89 f5             	mov    %r14d,%r13d
  304e70:	44 89 f0             	mov    %r14d,%eax
  304e73:	41 83 e5 20          	and    $0x20,%r13d
  304e77:	83 e0 10             	and    $0x10,%eax
  304e7a:	89 85 78 ff ff ff    	mov    %eax,-0x88(%rbp)
  304e80:	74 04                	je     304e86 <number.isra.1+0x46>
  304e82:	41 83 e6 fe          	and    $0xfffffffe,%r14d
  304e86:	41 f6 c6 02          	test   $0x2,%r14b
  304e8a:	c6 85 7f ff ff ff 00 	movb   $0x0,-0x81(%rbp)
  304e91:	74 2d                	je     304ec0 <number.isra.1+0x80>
  304e93:	48 85 d2             	test   %rdx,%rdx
  304e96:	0f 88 48 02 00 00    	js     3050e4 <number.isra.1+0x2a4>
  304e9c:	41 f6 c6 04          	test   $0x4,%r14b
  304ea0:	0f 85 fb 01 00 00    	jne    3050a1 <number.isra.1+0x261>
  304ea6:	41 f6 c6 08          	test   $0x8,%r14b
  304eaa:	74 14                	je     304ec0 <number.isra.1+0x80>
  304eac:	41 83 e8 01          	sub    $0x1,%r8d
  304eb0:	c6 85 7f ff ff ff 20 	movb   $0x20,-0x81(%rbp)
  304eb7:	66 0f 1f 84 00 00 00 	nopw   0x0(%rax,%rax,1)
  304ebe:	00 00 
  304ec0:	45 85 ff             	test   %r15d,%r15d
  304ec3:	74 0e                	je     304ed3 <number.isra.1+0x93>
  304ec5:	41 83 f9 10          	cmp    $0x10,%r9d
  304ec9:	0f 84 e2 01 00 00    	je     3050b1 <number.isra.1+0x271>
  304ecf:	41 83 e8 01          	sub    $0x1,%r8d
  304ed3:	48 85 d2             	test   %rdx,%rdx
  304ed6:	0f 85 54 01 00 00    	jne    305030 <number.isra.1+0x1f0>
  304edc:	c6 45 80 30          	movb   $0x30,-0x80(%rbp)
  304ee0:	31 c9                	xor    %ecx,%ecx
  304ee2:	be 01 00 00 00       	mov    $0x1,%esi
  304ee7:	3b 75 10             	cmp    0x10(%rbp),%esi
  304eea:	89 f0                	mov    %esi,%eax
  304eec:	0f 4c 45 10          	cmovl  0x10(%rbp),%eax
  304ef0:	41 29 c0             	sub    %eax,%r8d
  304ef3:	41 f6 c6 11          	test   $0x11,%r14b
  304ef7:	75 2e                	jne    304f27 <number.isra.1+0xe7>
  304ef9:	44 89 c7             	mov    %r8d,%edi
  304efc:	83 ef 01             	sub    $0x1,%edi
  304eff:	0f 88 47 02 00 00    	js     30514c <number.isra.1+0x30c>
  304f05:	89 fa                	mov    %edi,%edx
  304f07:	48 8d 54 13 01       	lea    0x1(%rbx,%rdx,1),%rdx
  304f0c:	0f 1f 40 00          	nopl   0x0(%rax)
  304f10:	4c 39 e3             	cmp    %r12,%rbx
  304f13:	73 03                	jae    304f18 <number.isra.1+0xd8>
  304f15:	c6 03 20             	movb   $0x20,(%rbx)
  304f18:	48 83 c3 01          	add    $0x1,%rbx
  304f1c:	48 39 d3             	cmp    %rdx,%rbx
  304f1f:	75 ef                	jne    304f10 <number.isra.1+0xd0>
  304f21:	44 29 c7             	sub    %r8d,%edi
  304f24:	41 89 f8             	mov    %edi,%r8d
  304f27:	80 bd 7f ff ff ff 00 	cmpb   $0x0,-0x81(%rbp)
  304f2e:	74 0d                	je     304f3d <number.isra.1+0xfd>
  304f30:	49 39 dc             	cmp    %rbx,%r12
  304f33:	0f 87 5a 01 00 00    	ja     305093 <number.isra.1+0x253>
  304f39:	48 83 c3 01          	add    $0x1,%rbx
  304f3d:	45 85 ff             	test   %r15d,%r15d
  304f40:	74 19                	je     304f5b <number.isra.1+0x11b>
  304f42:	49 39 dc             	cmp    %rbx,%r12
  304f45:	76 03                	jbe    304f4a <number.isra.1+0x10a>
  304f47:	c6 03 30             	movb   $0x30,(%rbx)
  304f4a:	41 83 f9 10          	cmp    $0x10,%r9d
  304f4e:	48 8d 53 01          	lea    0x1(%rbx),%rdx
  304f52:	0f 84 76 01 00 00    	je     3050ce <number.isra.1+0x28e>
  304f58:	48 89 d3             	mov    %rdx,%rbx
  304f5b:	8b 95 78 ff ff ff    	mov    -0x88(%rbp),%edx
  304f61:	85 d2                	test   %edx,%edx
  304f63:	75 57                	jne    304fbc <number.isra.1+0x17c>
  304f65:	41 83 e6 01          	and    $0x1,%r14d
  304f69:	41 83 fe 01          	cmp    $0x1,%r14d
  304f6d:	19 ff                	sbb    %edi,%edi
  304f6f:	83 e7 f0             	and    $0xfffffff0,%edi
  304f72:	83 c7 30             	add    $0x30,%edi
  304f75:	41 83 e8 01          	sub    $0x1,%r8d
  304f79:	78 41                	js     304fbc <number.isra.1+0x17c>
  304f7b:	45 89 c0             	mov    %r8d,%r8d
  304f7e:	4a 8d 54 03 01       	lea    0x1(%rbx,%r8,1),%rdx
  304f83:	0f 1f 44 00 00       	nopl   0x0(%rax,%rax,1)
  304f88:	49 39 dc             	cmp    %rbx,%r12
  304f8b:	76 03                	jbe    304f90 <number.isra.1+0x150>
  304f8d:	40 88 3b             	mov    %dil,(%rbx)
  304f90:	48 83 c3 01          	add    $0x1,%rbx
  304f94:	48 39 d3             	cmp    %rdx,%rbx
  304f97:	75 ef                	jne    304f88 <number.isra.1+0x148>
  304f99:	83 e8 01             	sub    $0x1,%eax
  304f9c:	41 b8 ff ff ff ff    	mov    $0xffffffff,%r8d
  304fa2:	39 c6                	cmp    %eax,%esi
  304fa4:	7f 1d                	jg     304fc3 <number.isra.1+0x183>
  304fa6:	66 2e 0f 1f 84 00 00 	nopw   %cs:0x0(%rax,%rax,1)
  304fad:	00 00 00 
  304fb0:	49 39 dc             	cmp    %rbx,%r12
  304fb3:	76 03                	jbe    304fb8 <number.isra.1+0x178>
  304fb5:	c6 03 30             	movb   $0x30,(%rbx)
  304fb8:	48 83 c3 01          	add    $0x1,%rbx
  304fbc:	83 e8 01             	sub    $0x1,%eax
  304fbf:	39 c6                	cmp    %eax,%esi
  304fc1:	7e ed                	jle    304fb0 <number.isra.1+0x170>
  304fc3:	85 c9                	test   %ecx,%ecx
  304fc5:	78 2d                	js     304ff4 <number.isra.1+0x1b4>
  304fc7:	89 ca                	mov    %ecx,%edx
  304fc9:	48 89 d8             	mov    %rbx,%rax
  304fcc:	0f 1f 40 00          	nopl   0x0(%rax)
  304fd0:	49 39 c4             	cmp    %rax,%r12
  304fd3:	76 0b                	jbe    304fe0 <number.isra.1+0x1a0>
  304fd5:	48 63 f2             	movslq %edx,%rsi
  304fd8:	0f b6 74 35 80       	movzbl -0x80(%rbp,%rsi,1),%esi
  304fdd:	40 88 30             	mov    %sil,(%rax)
  304fe0:	83 ea 01             	sub    $0x1,%edx
  304fe3:	48 83 c0 01          	add    $0x1,%rax
  304fe7:	83 fa ff             	cmp    $0xffffffff,%edx
  304fea:	75 e4                	jne    304fd0 <number.isra.1+0x190>
  304fec:	48 63 c9             	movslq %ecx,%rcx
  304fef:	48 8d 5c 0b 01       	lea    0x1(%rbx,%rcx,1),%rbx
  304ff4:	41 83 e8 01          	sub    $0x1,%r8d
  304ff8:	0f 88 46 01 00 00    	js     305144 <number.isra.1+0x304>
  304ffe:	45 89 c0             	mov    %r8d,%r8d
  305001:	4a 8d 44 03 01       	lea    0x1(%rbx,%r8,1),%rax
  305006:	66 2e 0f 1f 84 00 00 	nopw   %cs:0x0(%rax,%rax,1)
  30500d:	00 00 00 
  305010:	49 39 dc             	cmp    %rbx,%r12
  305013:	76 03                	jbe    305018 <number.isra.1+0x1d8>
  305015:	c6 03 20             	movb   $0x20,(%rbx)
  305018:	48 83 c3 01          	add    $0x1,%rbx
  30501c:	48 39 c3             	cmp    %rax,%rbx
  30501f:	75 ef                	jne    305010 <number.isra.1+0x1d0>
  305021:	48 83 c4 70          	add    $0x70,%rsp
  305025:	5b                   	pop    %rbx
  305026:	41 5c                	pop    %r12
  305028:	41 5d                	pop    %r13
  30502a:	41 5e                	pop    %r14
  30502c:	41 5f                	pop    %r15
  30502e:	5d                   	pop    %rbp
  30502f:	c3                   	retq   
  305030:	41 83 f9 0a          	cmp    $0xa,%r9d
  305034:	0f 84 bd 00 00 00    	je     3050f7 <number.isra.1+0x2b7>
  30503a:	31 c9                	xor    %ecx,%ecx
  30503c:	41 83 f9 10          	cmp    $0x10,%r9d
  305040:	45 8d 59 ff          	lea    -0x1(%r9),%r11d
  305044:	0f 94 c1             	sete   %cl
  305047:	83 c1 03             	add    $0x3,%ecx
  30504a:	31 c0                	xor    %eax,%eax
  30504c:	49 ba 10 db 33 00 00 	movabs $0x33db10,%r10
  305053:	00 00 00 
  305056:	44 89 85 70 ff ff ff 	mov    %r8d,-0x90(%rbp)
  30505d:	0f 1f 00             	nopl   (%rax)
  305060:	89 d7                	mov    %edx,%edi
  305062:	45 89 e8             	mov    %r13d,%r8d
  305065:	48 d3 ea             	shr    %cl,%rdx
  305068:	44 21 df             	and    %r11d,%edi
  30506b:	8d 70 01             	lea    0x1(%rax),%esi
  30506e:	40 0f b6 ff          	movzbl %dil,%edi
  305072:	45 0a 04 3a          	or     (%r10,%rdi,1),%r8b
  305076:	44 88 44 05 80       	mov    %r8b,-0x80(%rbp,%rax,1)
  30507b:	48 83 c0 01          	add    $0x1,%rax
  30507f:	48 85 d2             	test   %rdx,%rdx
  305082:	75 dc                	jne    305060 <number.isra.1+0x220>
  305084:	44 8b 85 70 ff ff ff 	mov    -0x90(%rbp),%r8d
  30508b:	8d 4e ff             	lea    -0x1(%rsi),%ecx
  30508e:	e9 54 fe ff ff       	jmpq   304ee7 <number.isra.1+0xa7>
  305093:	0f b6 95 7f ff ff ff 	movzbl -0x81(%rbp),%edx
  30509a:	88 13                	mov    %dl,(%rbx)
  30509c:	e9 98 fe ff ff       	jmpq   304f39 <number.isra.1+0xf9>
  3050a1:	41 83 e8 01          	sub    $0x1,%r8d
  3050a5:	c6 85 7f ff ff ff 2b 	movb   $0x2b,-0x81(%rbp)
  3050ac:	e9 0f fe ff ff       	jmpq   304ec0 <number.isra.1+0x80>
  3050b1:	41 83 e8 02          	sub    $0x2,%r8d
  3050b5:	48 85 d2             	test   %rdx,%rdx
  3050b8:	0f 84 1e fe ff ff    	je     304edc <number.isra.1+0x9c>
  3050be:	41 bb 0f 00 00 00    	mov    $0xf,%r11d
  3050c4:	b9 04 00 00 00       	mov    $0x4,%ecx
  3050c9:	e9 7c ff ff ff       	jmpq   30504a <number.isra.1+0x20a>
  3050ce:	49 39 d4             	cmp    %rdx,%r12
  3050d1:	76 08                	jbe    3050db <number.isra.1+0x29b>
  3050d3:	41 83 cd 58          	or     $0x58,%r13d
  3050d7:	44 88 6b 01          	mov    %r13b,0x1(%rbx)
  3050db:	48 83 c3 02          	add    $0x2,%rbx
  3050df:	e9 77 fe ff ff       	jmpq   304f5b <number.isra.1+0x11b>
  3050e4:	48 f7 da             	neg    %rdx
  3050e7:	41 83 e8 01          	sub    $0x1,%r8d
  3050eb:	c6 85 7f ff ff ff 2d 	movb   $0x2d,-0x81(%rbp)
  3050f2:	e9 c9 fd ff ff       	jmpq   304ec0 <number.isra.1+0x80>
  3050f7:	4c 8d 55 80          	lea    -0x80(%rbp),%r10
  3050fb:	44 89 8d 68 ff ff ff 	mov    %r9d,-0x98(%rbp)
  305102:	44 89 85 6c ff ff ff 	mov    %r8d,-0x94(%rbp)
  305109:	48 89 d6             	mov    %rdx,%rsi
  30510c:	48 b8 30 4d 30 00 00 	movabs $0x304d30,%rax
  305113:	00 00 00 
  305116:	4c 89 d7             	mov    %r10,%rdi
  305119:	4c 89 95 70 ff ff ff 	mov    %r10,-0x90(%rbp)
  305120:	ff d0                	callq  *%rax
  305122:	4c 8b 95 70 ff ff ff 	mov    -0x90(%rbp),%r10
  305129:	44 8b 8d 68 ff ff ff 	mov    -0x98(%rbp),%r9d
  305130:	44 8b 85 6c ff ff ff 	mov    -0x94(%rbp),%r8d
  305137:	4c 29 d0             	sub    %r10,%rax
  30513a:	89 c6                	mov    %eax,%esi
  30513c:	8d 48 ff             	lea    -0x1(%rax),%ecx
  30513f:	e9 a3 fd ff ff       	jmpq   304ee7 <number.isra.1+0xa7>
  305144:	48 89 d8             	mov    %rbx,%rax
  305147:	e9 d5 fe ff ff       	jmpq   305021 <number.isra.1+0x1e1>
  30514c:	41 89 f8             	mov    %edi,%r8d
  30514f:	e9 d3 fd ff ff       	jmpq   304f27 <number.isra.1+0xe7>
  305154:	66 66 66 2e 0f 1f 84 	data32 data32 nopw %cs:0x0(%rax,%rax,1)
  30515b:	00 00 00 00 00 

0000000000305160 <printk_char>:
  305160:	55                   	push   %rbp
  305161:	83 fe 0a             	cmp    $0xa,%esi
  305164:	48 89 e5             	mov    %rsp,%rbp
  305167:	41 56                	push   %r14
  305169:	41 89 f6             	mov    %esi,%r14d
  30516c:	41 55                	push   %r13
  30516e:	41 54                	push   %r12
  305170:	49 89 fc             	mov    %rdi,%r12
  305173:	53                   	push   %rbx
  305174:	74 7b                	je     3051f1 <printk_char+0x91>
  305176:	85 f6                	test   %esi,%esi
  305178:	75 54                	jne    3051ce <printk_char+0x6e>
  30517a:	8b 87 80 00 00 00    	mov    0x80(%rdi),%eax
  305180:	85 c0                	test   %eax,%eax
  305182:	0f 84 94 00 00 00    	je     30521c <printk_char+0xbc>
  305188:	31 db                	xor    %ebx,%ebx
  30518a:	49 bd 00 90 30 00 00 	movabs $0x309000,%r13
  305191:	00 00 00 
  305194:	0f 1f 40 00          	nopl   0x0(%rax)
  305198:	41 0f b6 3c 1c       	movzbl (%r12,%rbx,1),%edi
  30519d:	41 ff d5             	callq  *%r13
  3051a0:	8d 43 01             	lea    0x1(%rbx),%eax
  3051a3:	48 83 c3 01          	add    $0x1,%rbx
  3051a7:	41 39 84 24 80 00 00 	cmp    %eax,0x80(%r12)
  3051ae:	00 
  3051af:	77 e7                	ja     305198 <printk_char+0x38>
  3051b1:	41 c7 84 24 80 00 00 	movl   $0x0,0x80(%r12)
  3051b8:	00 00 00 00 00 
  3051bd:	4c 89 e8             	mov    %r13,%rax
  3051c0:	41 0f b6 fe          	movzbl %r14b,%edi
  3051c4:	5b                   	pop    %rbx
  3051c5:	41 5c                	pop    %r12
  3051c7:	41 5d                	pop    %r13
  3051c9:	41 5e                	pop    %r14
  3051cb:	5d                   	pop    %rbp
  3051cc:	ff e0                	jmpq   *%rax
  3051ce:	8b 87 80 00 00 00    	mov    0x80(%rdi),%eax
  3051d4:	83 f8 7f             	cmp    $0x7f,%eax
  3051d7:	77 af                	ja     305188 <printk_char+0x28>
  3051d9:	89 c2                	mov    %eax,%edx
  3051db:	83 c0 01             	add    $0x1,%eax
  3051de:	41 88 34 14          	mov    %sil,(%r12,%rdx,1)
  3051e2:	89 87 80 00 00 00    	mov    %eax,0x80(%rdi)
  3051e8:	5b                   	pop    %rbx
  3051e9:	41 5c                	pop    %r12
  3051eb:	41 5d                	pop    %r13
  3051ed:	41 5e                	pop    %r14
  3051ef:	5d                   	pop    %rbp
  3051f0:	c3                   	retq   
  3051f1:	8b 87 80 00 00 00    	mov    0x80(%rdi),%eax
  3051f7:	c6 04 07 00          	movb   $0x0,(%rdi,%rax,1)
  3051fb:	48 b8 80 91 30 00 00 	movabs $0x309180,%rax
  305202:	00 00 00 
  305205:	ff d0                	callq  *%rax
  305207:	41 c7 84 24 80 00 00 	movl   $0x0,0x80(%r12)
  30520e:	00 00 00 00 00 
  305213:	5b                   	pop    %rbx
  305214:	41 5c                	pop    %r12
  305216:	41 5d                	pop    %r13
  305218:	41 5e                	pop    %r14
  30521a:	5d                   	pop    %rbp
  30521b:	c3                   	retq   
  30521c:	49 bd 00 90 30 00 00 	movabs $0x309000,%r13
  305223:	00 00 00 
  305226:	eb 89                	jmp    3051b1 <printk_char+0x51>
  305228:	0f 1f 84 00 00 00 00 	nopl   0x0(%rax,%rax,1)
  30522f:	00 

0000000000305230 <string.isra.4>:
  305230:	55                   	push   %rbp
  305231:	48 b8 5f eb 33 00 00 	movabs $0x33eb5f,%rax
  305238:	00 00 00 
  30523b:	48 89 e5             	mov    %rsp,%rbp
  30523e:	41 57                	push   %r15
  305240:	41 89 cf             	mov    %ecx,%r15d
  305243:	41 56                	push   %r14
  305245:	45 89 c6             	mov    %r8d,%r14d
  305248:	41 55                	push   %r13
  30524a:	49 89 f5             	mov    %rsi,%r13
  30524d:	49 63 f1             	movslq %r9d,%rsi
  305250:	41 54                	push   %r12
  305252:	49 89 d4             	mov    %rdx,%r12
  305255:	53                   	push   %rbx
  305256:	48 89 fb             	mov    %rdi,%rbx
  305259:	48 83 ec 08          	sub    $0x8,%rsp
  30525d:	48 81 fa ff 0f 00 00 	cmp    $0xfff,%rdx
  305264:	4c 0f 46 e0          	cmovbe %rax,%r12
  305268:	48 b8 90 d2 30 00 00 	movabs $0x30d290,%rax
  30526f:	00 00 00 
  305272:	4c 89 e7             	mov    %r12,%rdi
  305275:	ff d0                	callq  *%rax
  305277:	41 83 e7 10          	and    $0x10,%r15d
  30527b:	75 33                	jne    3052b0 <string.isra.4+0x80>
  30527d:	44 39 f0             	cmp    %r14d,%eax
  305280:	41 8d 4e ff          	lea    -0x1(%r14),%ecx
  305284:	0f 8d 96 00 00 00    	jge    305320 <string.isra.4+0xf0>
  30528a:	89 ca                	mov    %ecx,%edx
  30528c:	29 c2                	sub    %eax,%edx
  30528e:	48 8d 54 13 01       	lea    0x1(%rbx,%rdx,1),%rdx
  305293:	0f 1f 44 00 00       	nopl   0x0(%rax,%rax,1)
  305298:	49 39 dd             	cmp    %rbx,%r13
  30529b:	76 03                	jbe    3052a0 <string.isra.4+0x70>
  30529d:	c6 03 20             	movb   $0x20,(%rbx)
  3052a0:	48 83 c3 01          	add    $0x1,%rbx
  3052a4:	48 39 d3             	cmp    %rdx,%rbx
  3052a7:	75 ef                	jne    305298 <string.isra.4+0x68>
  3052a9:	44 29 f1             	sub    %r14d,%ecx
  3052ac:	44 8d 34 01          	lea    (%rcx,%rax,1),%r14d
  3052b0:	85 c0                	test   %eax,%eax
  3052b2:	7e 67                	jle    30531b <string.isra.4+0xeb>
  3052b4:	8d 50 ff             	lea    -0x1(%rax),%edx
  3052b7:	48 8d 4c 13 01       	lea    0x1(%rbx,%rdx,1),%rcx
  3052bc:	0f 1f 40 00          	nopl   0x0(%rax)
  3052c0:	49 39 dd             	cmp    %rbx,%r13
  3052c3:	76 07                	jbe    3052cc <string.isra.4+0x9c>
  3052c5:	41 0f b6 14 24       	movzbl (%r12),%edx
  3052ca:	88 13                	mov    %dl,(%rbx)
  3052cc:	48 83 c3 01          	add    $0x1,%rbx
  3052d0:	49 83 c4 01          	add    $0x1,%r12
  3052d4:	48 39 cb             	cmp    %rcx,%rbx
  3052d7:	75 e7                	jne    3052c0 <string.isra.4+0x90>
  3052d9:	44 39 f0             	cmp    %r14d,%eax
  3052dc:	7d 2b                	jge    305309 <string.isra.4+0xd9>
  3052de:	f7 d0                	not    %eax
  3052e0:	42 8d 14 30          	lea    (%rax,%r14,1),%edx
  3052e4:	48 8d 74 11 01       	lea    0x1(%rcx,%rdx,1),%rsi
  3052e9:	48 89 ca             	mov    %rcx,%rdx
  3052ec:	0f 1f 40 00          	nopl   0x0(%rax)
  3052f0:	49 39 d5             	cmp    %rdx,%r13
  3052f3:	76 03                	jbe    3052f8 <string.isra.4+0xc8>
  3052f5:	c6 02 20             	movb   $0x20,(%rdx)
  3052f8:	48 83 c2 01          	add    $0x1,%rdx
  3052fc:	48 39 f2             	cmp    %rsi,%rdx
  3052ff:	75 ef                	jne    3052f0 <string.isra.4+0xc0>
  305301:	44 01 f0             	add    %r14d,%eax
  305304:	48 8d 4c 01 01       	lea    0x1(%rcx,%rax,1),%rcx
  305309:	48 83 c4 08          	add    $0x8,%rsp
  30530d:	48 89 c8             	mov    %rcx,%rax
  305310:	5b                   	pop    %rbx
  305311:	41 5c                	pop    %r12
  305313:	41 5d                	pop    %r13
  305315:	41 5e                	pop    %r14
  305317:	41 5f                	pop    %r15
  305319:	5d                   	pop    %rbp
  30531a:	c3                   	retq   
  30531b:	48 89 d9             	mov    %rbx,%rcx
  30531e:	eb b9                	jmp    3052d9 <string.isra.4+0xa9>
  305320:	41 89 ce             	mov    %ecx,%r14d
  305323:	eb 8b                	jmp    3052b0 <string.isra.4+0x80>
  305325:	66 66 2e 0f 1f 84 00 	data32 nopw %cs:0x0(%rax,%rax,1)
  30532c:	00 00 00 00 

0000000000305330 <vprintk>:
  305330:	55                   	push   %rbp
  305331:	31 d2                	xor    %edx,%edx
  305333:	48 b8 e0 74 30 00 00 	movabs $0x3074e0,%rax
  30533a:	00 00 00 
  30533d:	48 b9 60 51 30 00 00 	movabs $0x305160,%rcx
  305344:	00 00 00 
  305347:	48 89 e5             	mov    %rsp,%rbp
  30534a:	41 54                	push   %r12
  30534c:	4c 8d 85 60 ff ff ff 	lea    -0xa0(%rbp),%r8
  305353:	53                   	push   %rbx
  305354:	48 81 ec 90 00 00 00 	sub    $0x90,%rsp
  30535b:	c7 45 e0 00 00 00 00 	movl   $0x0,-0x20(%rbp)
  305362:	ff d0                	callq  *%rax
  305364:	8b 45 e0             	mov    -0x20(%rbp),%eax
  305367:	85 c0                	test   %eax,%eax
  305369:	74 2c                	je     305397 <vprintk+0x67>
  30536b:	31 db                	xor    %ebx,%ebx
  30536d:	49 bc 00 90 30 00 00 	movabs $0x309000,%r12
  305374:	00 00 00 
  305377:	66 0f 1f 84 00 00 00 	nopw   0x0(%rax,%rax,1)
  30537e:	00 00 
  305380:	0f b6 bc 1d 60 ff ff 	movzbl -0xa0(%rbp,%rbx,1),%edi
  305387:	ff 
  305388:	41 ff d4             	callq  *%r12
  30538b:	8d 43 01             	lea    0x1(%rbx),%eax
  30538e:	48 83 c3 01          	add    $0x1,%rbx
  305392:	39 45 e0             	cmp    %eax,-0x20(%rbp)
  305395:	77 e9                	ja     305380 <vprintk+0x50>
  305397:	48 81 c4 90 00 00 00 	add    $0x90,%rsp
  30539e:	31 c0                	xor    %eax,%eax
  3053a0:	5b                   	pop    %rbx
  3053a1:	41 5c                	pop    %r12
  3053a3:	5d                   	pop    %rbp
  3053a4:	c3                   	retq   
  3053a5:	66 66 2e 0f 1f 84 00 	data32 nopw %cs:0x0(%rax,%rax,1)
  3053ac:	00 00 00 00 

00000000003053b0 <panic>:
  3053b0:	55                   	push   %rbp
  3053b1:	48 89 e5             	mov    %rsp,%rbp
  3053b4:	48 81 ec d0 00 00 00 	sub    $0xd0,%rsp
  3053bb:	84 c0                	test   %al,%al
  3053bd:	48 89 b5 58 ff ff ff 	mov    %rsi,-0xa8(%rbp)
  3053c4:	48 89 95 60 ff ff ff 	mov    %rdx,-0xa0(%rbp)
  3053cb:	48 89 8d 68 ff ff ff 	mov    %rcx,-0x98(%rbp)
  3053d2:	4c 89 85 70 ff ff ff 	mov    %r8,-0x90(%rbp)
  3053d9:	4c 89 8d 78 ff ff ff 	mov    %r9,-0x88(%rbp)
  3053e0:	74 20                	je     305402 <panic+0x52>
  3053e2:	0f 29 45 80          	movaps %xmm0,-0x80(%rbp)
  3053e6:	0f 29 4d 90          	movaps %xmm1,-0x70(%rbp)
  3053ea:	0f 29 55 a0          	movaps %xmm2,-0x60(%rbp)
  3053ee:	0f 29 5d b0          	movaps %xmm3,-0x50(%rbp)
  3053f2:	0f 29 65 c0          	movaps %xmm4,-0x40(%rbp)
  3053f6:	0f 29 6d d0          	movaps %xmm5,-0x30(%rbp)
  3053fa:	0f 29 75 e0          	movaps %xmm6,-0x20(%rbp)
  3053fe:	0f 29 7d f0          	movaps %xmm7,-0x10(%rbp)
  305402:	48 8d 45 10          	lea    0x10(%rbp),%rax
  305406:	48 8d b5 38 ff ff ff 	lea    -0xc8(%rbp),%rsi
  30540d:	48 89 85 40 ff ff ff 	mov    %rax,-0xc0(%rbp)
  305414:	48 8d 85 50 ff ff ff 	lea    -0xb0(%rbp),%rax
  30541b:	c7 85 38 ff ff ff 08 	movl   $0x8,-0xc8(%rbp)
  305422:	00 00 00 
  305425:	c7 85 3c ff ff ff 30 	movl   $0x30,-0xc4(%rbp)
  30542c:	00 00 00 
  30542f:	48 89 85 48 ff ff ff 	mov    %rax,-0xb8(%rbp)
  305436:	48 b8 30 53 30 00 00 	movabs $0x305330,%rax
  30543d:	00 00 00 
  305440:	ff d0                	callq  *%rax
  305442:	fa                   	cli    
  305443:	eb fe                	jmp    305443 <panic+0x93>
  305445:	66 66 2e 0f 1f 84 00 	data32 nopw %cs:0x0(%rax,%rax,1)
  30544c:	00 00 00 00 

0000000000305450 <early_printk>:
  305450:	55                   	push   %rbp
  305451:	48 b8 30 53 30 00 00 	movabs $0x305330,%rax
  305458:	00 00 00 
  30545b:	48 89 e5             	mov    %rsp,%rbp
  30545e:	5d                   	pop    %rbp
  30545f:	ff e0                	jmpq   *%rax
  305461:	66 66 66 66 66 66 2e 	data32 data32 data32 data32 data32 nopw %cs:0x0(%rax,%rax,1)
  305468:	0f 1f 84 00 00 00 00 
  30546f:	00 

0000000000305470 <printk>:
  305470:	55                   	push   %rbp
  305471:	48 89 e5             	mov    %rsp,%rbp
  305474:	48 81 ec d0 00 00 00 	sub    $0xd0,%rsp
  30547b:	84 c0                	test   %al,%al
  30547d:	48 89 b5 58 ff ff ff 	mov    %rsi,-0xa8(%rbp)
  305484:	48 89 95 60 ff ff ff 	mov    %rdx,-0xa0(%rbp)
  30548b:	48 89 8d 68 ff ff ff 	mov    %rcx,-0x98(%rbp)
  305492:	4c 89 85 70 ff ff ff 	mov    %r8,-0x90(%rbp)
  305499:	4c 89 8d 78 ff ff ff 	mov    %r9,-0x88(%rbp)
  3054a0:	74 20                	je     3054c2 <printk+0x52>
  3054a2:	0f 29 45 80          	movaps %xmm0,-0x80(%rbp)
  3054a6:	0f 29 4d 90          	movaps %xmm1,-0x70(%rbp)
  3054aa:	0f 29 55 a0          	movaps %xmm2,-0x60(%rbp)
  3054ae:	0f 29 5d b0          	movaps %xmm3,-0x50(%rbp)
  3054b2:	0f 29 65 c0          	movaps %xmm4,-0x40(%rbp)
  3054b6:	0f 29 6d d0          	movaps %xmm5,-0x30(%rbp)
  3054ba:	0f 29 75 e0          	movaps %xmm6,-0x20(%rbp)
  3054be:	0f 29 7d f0          	movaps %xmm7,-0x10(%rbp)
  3054c2:	48 8d 45 10          	lea    0x10(%rbp),%rax
  3054c6:	48 8d b5 38 ff ff ff 	lea    -0xc8(%rbp),%rsi
  3054cd:	48 89 85 40 ff ff ff 	mov    %rax,-0xc0(%rbp)
  3054d4:	48 8d 85 50 ff ff ff 	lea    -0xb0(%rbp),%rax
  3054db:	c7 85 38 ff ff ff 08 	movl   $0x8,-0xc8(%rbp)
  3054e2:	00 00 00 
  3054e5:	c7 85 3c ff ff ff 30 	movl   $0x30,-0xc4(%rbp)
  3054ec:	00 00 00 
  3054ef:	48 89 85 48 ff ff ff 	mov    %rax,-0xb8(%rbp)
  3054f6:	48 b8 30 53 30 00 00 	movabs $0x305330,%rax
  3054fd:	00 00 00 
  305500:	ff d0                	callq  *%rax
  305502:	c9                   	leaveq 
  305503:	c3                   	retq   
  305504:	66 66 66 2e 0f 1f 84 	data32 data32 nopw %cs:0x0(%rax,%rax,1)
  30550b:	00 00 00 00 00 

0000000000305510 <simple_strtoul>:
  305510:	55                   	push   %rbp
  305511:	85 d2                	test   %edx,%edx
  305513:	44 0f be 07          	movsbl (%rdi),%r8d
  305517:	48 89 e5             	mov    %rsp,%rbp
  30551a:	74 74                	je     305590 <simple_strtoul+0x80>
  30551c:	83 fa 10             	cmp    $0x10,%edx
  30551f:	49 b9 20 b2 33 00 00 	movabs $0x33b220,%r9
  305526:	00 00 00 
  305529:	0f 84 a1 00 00 00    	je     3055d0 <simple_strtoul+0xc0>
  30552f:	41 0f b6 c0          	movzbl %r8b,%eax
  305533:	41 0f b6 0c 01       	movzbl (%r9,%rax,1),%ecx
  305538:	31 c0                	xor    %eax,%eax
  30553a:	f6 c1 44             	test   $0x44,%cl
  30553d:	74 45                	je     305584 <simple_strtoul+0x74>
  30553f:	41 89 d2             	mov    %edx,%r10d
  305542:	eb 2a                	jmp    30556e <simple_strtoul+0x5e>
  305544:	0f 1f 40 00          	nopl   0x0(%rax)
  305548:	41 83 e8 30          	sub    $0x30,%r8d
  30554c:	41 39 d0             	cmp    %edx,%r8d
  30554f:	73 33                	jae    305584 <simple_strtoul+0x74>
  305551:	49 0f af c2          	imul   %r10,%rax
  305555:	48 83 c7 01          	add    $0x1,%rdi
  305559:	4c 01 c0             	add    %r8,%rax
  30555c:	44 0f be 07          	movsbl (%rdi),%r8d
  305560:	41 0f b6 c8          	movzbl %r8b,%ecx
  305564:	41 0f b6 0c 09       	movzbl (%r9,%rcx,1),%ecx
  305569:	f6 c1 44             	test   $0x44,%cl
  30556c:	74 16                	je     305584 <simple_strtoul+0x74>
  30556e:	83 e1 04             	and    $0x4,%ecx
  305571:	75 d5                	jne    305548 <simple_strtoul+0x38>
  305573:	41 83 c8 20          	or     $0x20,%r8d
  305577:	45 0f be c0          	movsbl %r8b,%r8d
  30557b:	41 83 e8 57          	sub    $0x57,%r8d
  30557f:	41 39 d0             	cmp    %edx,%r8d
  305582:	72 cd                	jb     305551 <simple_strtoul+0x41>
  305584:	48 85 f6             	test   %rsi,%rsi
  305587:	74 03                	je     30558c <simple_strtoul+0x7c>
  305589:	48 89 3e             	mov    %rdi,(%rsi)
  30558c:	5d                   	pop    %rbp
  30558d:	c3                   	retq   
  30558e:	66 90                	xchg   %ax,%ax
  305590:	41 80 f8 30          	cmp    $0x30,%r8b
  305594:	ba 0a 00 00 00       	mov    $0xa,%edx
  305599:	49 b9 20 b2 33 00 00 	movabs $0x33b220,%r9
  3055a0:	00 00 00 
  3055a3:	75 8a                	jne    30552f <simple_strtoul+0x1f>
  3055a5:	0f b6 47 01          	movzbl 0x1(%rdi),%eax
  3055a9:	ba 08 00 00 00       	mov    $0x8,%edx
  3055ae:	49 b9 20 b2 33 00 00 	movabs $0x33b220,%r9
  3055b5:	00 00 00 
  3055b8:	89 c1                	mov    %eax,%ecx
  3055ba:	83 c9 20             	or     $0x20,%ecx
  3055bd:	80 f9 78             	cmp    $0x78,%cl
  3055c0:	74 40                	je     305602 <simple_strtoul+0xf2>
  3055c2:	41 b8 30 00 00 00    	mov    $0x30,%r8d
  3055c8:	e9 62 ff ff ff       	jmpq   30552f <simple_strtoul+0x1f>
  3055cd:	0f 1f 00             	nopl   (%rax)
  3055d0:	41 80 f8 30          	cmp    $0x30,%r8b
  3055d4:	0f 85 55 ff ff ff    	jne    30552f <simple_strtoul+0x1f>
  3055da:	0f b6 47 01          	movzbl 0x1(%rdi),%eax
  3055de:	83 c8 20             	or     $0x20,%eax
  3055e1:	41 b8 30 00 00 00    	mov    $0x30,%r8d
  3055e7:	ba 10 00 00 00       	mov    $0x10,%edx
  3055ec:	3c 78                	cmp    $0x78,%al
  3055ee:	0f 85 3b ff ff ff    	jne    30552f <simple_strtoul+0x1f>
  3055f4:	44 0f be 47 02       	movsbl 0x2(%rdi),%r8d
  3055f9:	48 83 c7 02          	add    $0x2,%rdi
  3055fd:	e9 2d ff ff ff       	jmpq   30552f <simple_strtoul+0x1f>
  305602:	0f b6 4f 02          	movzbl 0x2(%rdi),%ecx
  305606:	41 f6 04 09 44       	testb  $0x44,(%r9,%rcx,1)
  30560b:	74 b5                	je     3055c2 <simple_strtoul+0xb2>
  30560d:	eb cf                	jmp    3055de <simple_strtoul+0xce>
  30560f:	90                   	nop

0000000000305610 <simple_strtol>:
  305610:	80 3f 2d             	cmpb   $0x2d,(%rdi)
  305613:	74 13                	je     305628 <simple_strtol+0x18>
  305615:	48 b8 10 55 30 00 00 	movabs $0x305510,%rax
  30561c:	00 00 00 
  30561f:	ff e0                	jmpq   *%rax
  305621:	0f 1f 80 00 00 00 00 	nopl   0x0(%rax)
  305628:	55                   	push   %rbp
  305629:	48 83 c7 01          	add    $0x1,%rdi
  30562d:	48 b8 10 55 30 00 00 	movabs $0x305510,%rax
  305634:	00 00 00 
  305637:	48 89 e5             	mov    %rsp,%rbp
  30563a:	ff d0                	callq  *%rax
  30563c:	5d                   	pop    %rbp
  30563d:	48 f7 d8             	neg    %rax
  305640:	c3                   	retq   
  305641:	66 66 66 66 66 66 2e 	data32 data32 data32 data32 data32 nopw %cs:0x0(%rax,%rax,1)
  305648:	0f 1f 84 00 00 00 00 
  30564f:	00 

0000000000305650 <simple_strtoull>:
  305650:	55                   	push   %rbp
  305651:	85 d2                	test   %edx,%edx
  305653:	44 0f be 07          	movsbl (%rdi),%r8d
  305657:	48 89 e5             	mov    %rsp,%rbp
  30565a:	74 74                	je     3056d0 <simple_strtoull+0x80>
  30565c:	83 fa 10             	cmp    $0x10,%edx
  30565f:	49 b9 20 b2 33 00 00 	movabs $0x33b220,%r9
  305666:	00 00 00 
  305669:	0f 84 a1 00 00 00    	je     305710 <simple_strtoull+0xc0>
  30566f:	41 0f b6 c0          	movzbl %r8b,%eax
  305673:	41 0f b6 0c 01       	movzbl (%r9,%rax,1),%ecx
  305678:	31 c0                	xor    %eax,%eax
  30567a:	f6 c1 44             	test   $0x44,%cl
  30567d:	74 45                	je     3056c4 <simple_strtoull+0x74>
  30567f:	41 89 d2             	mov    %edx,%r10d
  305682:	eb 2a                	jmp    3056ae <simple_strtoull+0x5e>
  305684:	0f 1f 40 00          	nopl   0x0(%rax)
  305688:	41 83 e8 30          	sub    $0x30,%r8d
  30568c:	41 39 d0             	cmp    %edx,%r8d
  30568f:	73 33                	jae    3056c4 <simple_strtoull+0x74>
  305691:	49 0f af c2          	imul   %r10,%rax
  305695:	48 83 c7 01          	add    $0x1,%rdi
  305699:	4c 01 c0             	add    %r8,%rax
  30569c:	44 0f be 07          	movsbl (%rdi),%r8d
  3056a0:	41 0f b6 c8          	movzbl %r8b,%ecx
  3056a4:	41 0f b6 0c 09       	movzbl (%r9,%rcx,1),%ecx
  3056a9:	f6 c1 44             	test   $0x44,%cl
  3056ac:	74 16                	je     3056c4 <simple_strtoull+0x74>
  3056ae:	83 e1 04             	and    $0x4,%ecx
  3056b1:	75 d5                	jne    305688 <simple_strtoull+0x38>
  3056b3:	41 83 c8 20          	or     $0x20,%r8d
  3056b7:	45 0f be c0          	movsbl %r8b,%r8d
  3056bb:	41 83 e8 57          	sub    $0x57,%r8d
  3056bf:	41 39 d0             	cmp    %edx,%r8d
  3056c2:	72 cd                	jb     305691 <simple_strtoull+0x41>
  3056c4:	48 85 f6             	test   %rsi,%rsi
  3056c7:	74 03                	je     3056cc <simple_strtoull+0x7c>
  3056c9:	48 89 3e             	mov    %rdi,(%rsi)
  3056cc:	5d                   	pop    %rbp
  3056cd:	c3                   	retq   
  3056ce:	66 90                	xchg   %ax,%ax
  3056d0:	41 80 f8 30          	cmp    $0x30,%r8b
  3056d4:	ba 0a 00 00 00       	mov    $0xa,%edx
  3056d9:	49 b9 20 b2 33 00 00 	movabs $0x33b220,%r9
  3056e0:	00 00 00 
  3056e3:	75 8a                	jne    30566f <simple_strtoull+0x1f>
  3056e5:	0f b6 47 01          	movzbl 0x1(%rdi),%eax
  3056e9:	ba 08 00 00 00       	mov    $0x8,%edx
  3056ee:	49 b9 20 b2 33 00 00 	movabs $0x33b220,%r9
  3056f5:	00 00 00 
  3056f8:	89 c1                	mov    %eax,%ecx
  3056fa:	83 c9 20             	or     $0x20,%ecx
  3056fd:	80 f9 78             	cmp    $0x78,%cl
  305700:	74 40                	je     305742 <simple_strtoull+0xf2>
  305702:	41 b8 30 00 00 00    	mov    $0x30,%r8d
  305708:	e9 62 ff ff ff       	jmpq   30566f <simple_strtoull+0x1f>
  30570d:	0f 1f 00             	nopl   (%rax)
  305710:	41 80 f8 30          	cmp    $0x30,%r8b
  305714:	0f 85 55 ff ff ff    	jne    30566f <simple_strtoull+0x1f>
  30571a:	0f b6 47 01          	movzbl 0x1(%rdi),%eax
  30571e:	83 c8 20             	or     $0x20,%eax
  305721:	41 b8 30 00 00 00    	mov    $0x30,%r8d
  305727:	ba 10 00 00 00       	mov    $0x10,%edx
  30572c:	3c 78                	cmp    $0x78,%al
  30572e:	0f 85 3b ff ff ff    	jne    30566f <simple_strtoull+0x1f>
  305734:	44 0f be 47 02       	movsbl 0x2(%rdi),%r8d
  305739:	48 83 c7 02          	add    $0x2,%rdi
  30573d:	e9 2d ff ff ff       	jmpq   30566f <simple_strtoull+0x1f>
  305742:	0f b6 4f 02          	movzbl 0x2(%rdi),%ecx
  305746:	41 f6 04 09 44       	testb  $0x44,(%r9,%rcx,1)
  30574b:	74 b5                	je     305702 <simple_strtoull+0xb2>
  30574d:	eb cf                	jmp    30571e <simple_strtoull+0xce>
  30574f:	90                   	nop

0000000000305750 <simple_strtoll>:
  305750:	80 3f 2d             	cmpb   $0x2d,(%rdi)
  305753:	74 13                	je     305768 <simple_strtoll+0x18>
  305755:	48 b8 50 56 30 00 00 	movabs $0x305650,%rax
  30575c:	00 00 00 
  30575f:	ff e0                	jmpq   *%rax
  305761:	0f 1f 80 00 00 00 00 	nopl   0x0(%rax)
  305768:	55                   	push   %rbp
  305769:	48 83 c7 01          	add    $0x1,%rdi
  30576d:	48 b8 50 56 30 00 00 	movabs $0x305650,%rax
  305774:	00 00 00 
  305777:	48 89 e5             	mov    %rsp,%rbp
  30577a:	ff d0                	callq  *%rax
  30577c:	5d                   	pop    %rbp
  30577d:	48 f7 d8             	neg    %rax
  305780:	c3                   	retq   
  305781:	66 66 66 66 66 66 2e 	data32 data32 data32 data32 data32 nopw %cs:0x0(%rax,%rax,1)
  305788:	0f 1f 84 00 00 00 00 
  30578f:	00 

0000000000305790 <strict_strtoul>:
  305790:	55                   	push   %rbp
  305791:	48 b8 70 d2 30 00 00 	movabs $0x30d270,%rax
  305798:	00 00 00 
  30579b:	48 89 e5             	mov    %rsp,%rbp
  30579e:	41 56                	push   %r14
  3057a0:	41 89 f6             	mov    %esi,%r14d
  3057a3:	41 55                	push   %r13
  3057a5:	41 54                	push   %r12
  3057a7:	49 89 d4             	mov    %rdx,%r12
  3057aa:	53                   	push   %rbx
  3057ab:	48 89 fb             	mov    %rdi,%rbx
  3057ae:	48 83 ec 10          	sub    $0x10,%rsp
  3057b2:	48 c7 02 00 00 00 00 	movq   $0x0,(%rdx)
  3057b9:	ff d0                	callq  *%rax
  3057bb:	48 85 c0             	test   %rax,%rax
  3057be:	49 89 c5             	mov    %rax,%r13
  3057c1:	74 4e                	je     305811 <strict_strtoul+0x81>
  3057c3:	44 89 f2             	mov    %r14d,%edx
  3057c6:	48 8d 75 d8          	lea    -0x28(%rbp),%rsi
  3057ca:	48 89 df             	mov    %rbx,%rdi
  3057cd:	48 b8 10 55 30 00 00 	movabs $0x305510,%rax
  3057d4:	00 00 00 
  3057d7:	ff d0                	callq  *%rax
  3057d9:	48 8b 4d d8          	mov    -0x28(%rbp),%rcx
  3057dd:	48 39 d9             	cmp    %rbx,%rcx
  3057e0:	74 2f                	je     305811 <strict_strtoul+0x81>
  3057e2:	0f b6 11             	movzbl (%rcx),%edx
  3057e5:	84 d2                	test   %dl,%dl
  3057e7:	75 17                	jne    305800 <strict_strtoul+0x70>
  3057e9:	49 89 04 24          	mov    %rax,(%r12)
  3057ed:	48 83 c4 10          	add    $0x10,%rsp
  3057f1:	31 c0                	xor    %eax,%eax
  3057f3:	5b                   	pop    %rbx
  3057f4:	41 5c                	pop    %r12
  3057f6:	41 5d                	pop    %r13
  3057f8:	41 5e                	pop    %r14
  3057fa:	5d                   	pop    %rbp
  3057fb:	c3                   	retq   
  3057fc:	0f 1f 40 00          	nopl   0x0(%rax)
  305800:	48 29 d9             	sub    %rbx,%rcx
  305803:	48 83 c1 01          	add    $0x1,%rcx
  305807:	4c 39 e9             	cmp    %r13,%rcx
  30580a:	75 05                	jne    305811 <strict_strtoul+0x81>
  30580c:	80 fa 0a             	cmp    $0xa,%dl
  30580f:	74 d8                	je     3057e9 <strict_strtoul+0x59>
  305811:	48 83 c4 10          	add    $0x10,%rsp
  305815:	b8 ea ff ff ff       	mov    $0xffffffea,%eax
  30581a:	5b                   	pop    %rbx
  30581b:	41 5c                	pop    %r12
  30581d:	41 5d                	pop    %r13
  30581f:	41 5e                	pop    %r14
  305821:	5d                   	pop    %rbp
  305822:	c3                   	retq   
  305823:	66 66 66 66 2e 0f 1f 	data32 data32 data32 nopw %cs:0x0(%rax,%rax,1)
  30582a:	84 00 00 00 00 00 

0000000000305830 <strict_strtol>:
  305830:	55                   	push   %rbp
  305831:	48 89 e5             	mov    %rsp,%rbp
  305834:	53                   	push   %rbx
  305835:	48 89 d3             	mov    %rdx,%rbx
  305838:	48 83 ec 08          	sub    $0x8,%rsp
  30583c:	80 3f 2d             	cmpb   $0x2d,(%rdi)
  30583f:	74 17                	je     305858 <strict_strtol+0x28>
  305841:	48 83 c4 08          	add    $0x8,%rsp
  305845:	48 b8 90 57 30 00 00 	movabs $0x305790,%rax
  30584c:	00 00 00 
  30584f:	5b                   	pop    %rbx
  305850:	5d                   	pop    %rbp
  305851:	ff e0                	jmpq   *%rax
  305853:	0f 1f 44 00 00       	nopl   0x0(%rax,%rax,1)
  305858:	48 83 c7 01          	add    $0x1,%rdi
  30585c:	48 b8 90 57 30 00 00 	movabs $0x305790,%rax
  305863:	00 00 00 
  305866:	ff d0                	callq  *%rax
  305868:	85 c0                	test   %eax,%eax
  30586a:	75 03                	jne    30586f <strict_strtol+0x3f>
  30586c:	48 f7 1b             	negq   (%rbx)
  30586f:	48 83 c4 08          	add    $0x8,%rsp
  305873:	5b                   	pop    %rbx
  305874:	5d                   	pop    %rbp
  305875:	c3                   	retq   
  305876:	66 2e 0f 1f 84 00 00 	nopw   %cs:0x0(%rax,%rax,1)
  30587d:	00 00 00 

0000000000305880 <strict_strtoull>:
  305880:	55                   	push   %rbp
  305881:	48 b8 70 d2 30 00 00 	movabs $0x30d270,%rax
  305888:	00 00 00 
  30588b:	48 89 e5             	mov    %rsp,%rbp
  30588e:	41 56                	push   %r14
  305890:	41 89 f6             	mov    %esi,%r14d
  305893:	41 55                	push   %r13
  305895:	41 54                	push   %r12
  305897:	49 89 d4             	mov    %rdx,%r12
  30589a:	53                   	push   %rbx
  30589b:	48 89 fb             	mov    %rdi,%rbx
  30589e:	48 83 ec 10          	sub    $0x10,%rsp
  3058a2:	48 c7 02 00 00 00 00 	movq   $0x0,(%rdx)
  3058a9:	ff d0                	callq  *%rax
  3058ab:	48 85 c0             	test   %rax,%rax
  3058ae:	49 89 c5             	mov    %rax,%r13
  3058b1:	74 4e                	je     305901 <strict_strtoull+0x81>
  3058b3:	44 89 f2             	mov    %r14d,%edx
  3058b6:	48 8d 75 d8          	lea    -0x28(%rbp),%rsi
  3058ba:	48 89 df             	mov    %rbx,%rdi
  3058bd:	48 b8 50 56 30 00 00 	movabs $0x305650,%rax
  3058c4:	00 00 00 
  3058c7:	ff d0                	callq  *%rax
  3058c9:	48 8b 4d d8          	mov    -0x28(%rbp),%rcx
  3058cd:	48 39 d9             	cmp    %rbx,%rcx
  3058d0:	74 2f                	je     305901 <strict_strtoull+0x81>
  3058d2:	0f b6 11             	movzbl (%rcx),%edx
  3058d5:	84 d2                	test   %dl,%dl
  3058d7:	75 17                	jne    3058f0 <strict_strtoull+0x70>
  3058d9:	49 89 04 24          	mov    %rax,(%r12)
  3058dd:	48 83 c4 10          	add    $0x10,%rsp
  3058e1:	31 c0                	xor    %eax,%eax
  3058e3:	5b                   	pop    %rbx
  3058e4:	41 5c                	pop    %r12
  3058e6:	41 5d                	pop    %r13
  3058e8:	41 5e                	pop    %r14
  3058ea:	5d                   	pop    %rbp
  3058eb:	c3                   	retq   
  3058ec:	0f 1f 40 00          	nopl   0x0(%rax)
  3058f0:	48 29 d9             	sub    %rbx,%rcx
  3058f3:	48 83 c1 01          	add    $0x1,%rcx
  3058f7:	4c 39 e9             	cmp    %r13,%rcx
  3058fa:	75 05                	jne    305901 <strict_strtoull+0x81>
  3058fc:	80 fa 0a             	cmp    $0xa,%dl
  3058ff:	74 d8                	je     3058d9 <strict_strtoull+0x59>
  305901:	48 83 c4 10          	add    $0x10,%rsp
  305905:	b8 ea ff ff ff       	mov    $0xffffffea,%eax
  30590a:	5b                   	pop    %rbx
  30590b:	41 5c                	pop    %r12
  30590d:	41 5d                	pop    %r13
  30590f:	41 5e                	pop    %r14
  305911:	5d                   	pop    %rbp
  305912:	c3                   	retq   
  305913:	66 66 66 66 2e 0f 1f 	data32 data32 data32 nopw %cs:0x0(%rax,%rax,1)
  30591a:	84 00 00 00 00 00 

0000000000305920 <strict_strtoll>:
  305920:	55                   	push   %rbp
  305921:	48 89 e5             	mov    %rsp,%rbp
  305924:	53                   	push   %rbx
  305925:	48 89 d3             	mov    %rdx,%rbx
  305928:	48 83 ec 08          	sub    $0x8,%rsp
  30592c:	80 3f 2d             	cmpb   $0x2d,(%rdi)
  30592f:	74 17                	je     305948 <strict_strtoll+0x28>
  305931:	48 83 c4 08          	add    $0x8,%rsp
  305935:	48 b8 80 58 30 00 00 	movabs $0x305880,%rax
  30593c:	00 00 00 
  30593f:	5b                   	pop    %rbx
  305940:	5d                   	pop    %rbp
  305941:	ff e0                	jmpq   *%rax
  305943:	0f 1f 44 00 00       	nopl   0x0(%rax,%rax,1)
  305948:	48 83 c7 01          	add    $0x1,%rdi
  30594c:	48 b8 80 58 30 00 00 	movabs $0x305880,%rax
  305953:	00 00 00 
  305956:	ff d0                	callq  *%rax
  305958:	85 c0                	test   %eax,%eax
  30595a:	75 03                	jne    30595f <strict_strtoll+0x3f>
  30595c:	48 f7 1b             	negq   (%rbx)
  30595f:	48 83 c4 08          	add    $0x8,%rsp
  305963:	5b                   	pop    %rbx
  305964:	5d                   	pop    %rbp
  305965:	c3                   	retq   
  305966:	66 2e 0f 1f 84 00 00 	nopw   %cs:0x0(%rax,%rax,1)
  30596d:	00 00 00 

0000000000305970 <vsscanf>:
  305970:	55                   	push   %rbp
  305971:	49 89 f9             	mov    %rdi,%r9
  305974:	49 89 d0             	mov    %rdx,%r8
  305977:	4c 89 c9             	mov    %r9,%rcx
  30597a:	49 bb b0 d3 33 00 00 	movabs $0x33d3b0,%r11
  305981:	00 00 00 
  305984:	48 89 e5             	mov    %rsp,%rbp
  305987:	41 57                	push   %r15
  305989:	41 56                	push   %r14
  30598b:	45 31 f6             	xor    %r14d,%r14d
  30598e:	41 55                	push   %r13
  305990:	41 54                	push   %r12
  305992:	49 bc 20 b2 33 00 00 	movabs $0x33b220,%r12
  305999:	00 00 00 
  30599c:	53                   	push   %rbx
  30599d:	48 89 f3             	mov    %rsi,%rbx
  3059a0:	48 83 ec 30          	sub    $0x30,%rsp
  3059a4:	0f b6 3e             	movzbl (%rsi),%edi
  3059a7:	40 84 ff             	test   %dil,%dil
  3059aa:	0f 84 88 00 00 00    	je     305a38 <vsscanf+0xc8>
  3059b0:	0f b6 31             	movzbl (%rcx),%esi
  3059b3:	40 84 f6             	test   %sil,%sil
  3059b6:	0f 84 e3 07 00 00    	je     30619f <vsscanf+0x82f>
  3059bc:	40 0f b6 c7          	movzbl %dil,%eax
  3059c0:	41 f6 04 04 20       	testb  $0x20,(%r12,%rax,1)
  3059c5:	75 11                	jne    3059d8 <vsscanf+0x68>
  3059c7:	40 80 ff 25          	cmp    $0x25,%dil
  3059cb:	0f 84 83 00 00 00    	je     305a54 <vsscanf+0xe4>
  3059d1:	89 f8                	mov    %edi,%eax
  3059d3:	eb 44                	jmp    305a19 <vsscanf+0xa9>
  3059d5:	0f 1f 00             	nopl   (%rax)
  3059d8:	48 83 c3 01          	add    $0x1,%rbx
  3059dc:	0f b6 03             	movzbl (%rbx),%eax
  3059df:	0f b6 d0             	movzbl %al,%edx
  3059e2:	41 f6 04 14 20       	testb  $0x20,(%r12,%rdx,1)
  3059e7:	75 ef                	jne    3059d8 <vsscanf+0x68>
  3059e9:	48 ba 20 b2 33 00 00 	movabs $0x33b220,%rdx
  3059f0:	00 00 00 
  3059f3:	f6 04 32 20          	testb  $0x20,(%rdx,%rsi,1)
  3059f7:	74 15                	je     305a0e <vsscanf+0x9e>
  3059f9:	0f 1f 80 00 00 00 00 	nopl   0x0(%rax)
  305a00:	48 83 c1 01          	add    $0x1,%rcx
  305a04:	0f b6 11             	movzbl (%rcx),%edx
  305a07:	41 f6 04 14 20       	testb  $0x20,(%r12,%rdx,1)
  305a0c:	75 f2                	jne    305a00 <vsscanf+0x90>
  305a0e:	84 c0                	test   %al,%al
  305a10:	74 3e                	je     305a50 <vsscanf+0xe0>
  305a12:	3c 25                	cmp    $0x25,%al
  305a14:	74 3a                	je     305a50 <vsscanf+0xe0>
  305a16:	0f b6 31             	movzbl (%rcx),%esi
  305a19:	48 83 c1 01          	add    $0x1,%rcx
  305a1d:	40 38 f0             	cmp    %sil,%al
  305a20:	4c 8d 7b 01          	lea    0x1(%rbx),%r15
  305a24:	0f b6 7b 01          	movzbl 0x1(%rbx),%edi
  305a28:	0f 84 e2 00 00 00    	je     305b10 <vsscanf+0x1a0>
  305a2e:	40 80 ff 25          	cmp    $0x25,%dil
  305a32:	0f 84 58 01 00 00    	je     305b90 <vsscanf+0x220>
  305a38:	48 83 c4 30          	add    $0x30,%rsp
  305a3c:	44 89 f0             	mov    %r14d,%eax
  305a3f:	5b                   	pop    %rbx
  305a40:	41 5c                	pop    %r12
  305a42:	41 5d                	pop    %r13
  305a44:	41 5e                	pop    %r14
  305a46:	41 5f                	pop    %r15
  305a48:	5d                   	pop    %rbp
  305a49:	c3                   	retq   
  305a4a:	66 0f 1f 44 00 00    	nopw   0x0(%rax,%rax,1)
  305a50:	84 c0                	test   %al,%al
  305a52:	74 e4                	je     305a38 <vsscanf+0xc8>
  305a54:	0f be 53 01          	movsbl 0x1(%rbx),%edx
  305a58:	4c 8d 6b 01          	lea    0x1(%rbx),%r13
  305a5c:	80 fa 2a             	cmp    $0x2a,%dl
  305a5f:	0f 84 bb 00 00 00    	je     305b20 <vsscanf+0x1b0>
  305a65:	0f b6 c2             	movzbl %dl,%eax
  305a68:	89 d7                	mov    %edx,%edi
  305a6a:	41 ba ff ff ff ff    	mov    $0xffffffff,%r10d
  305a70:	41 f6 04 04 04       	testb  $0x4,(%r12,%rax,1)
  305a75:	74 27                	je     305a9e <vsscanf+0x12e>
  305a77:	45 31 d2             	xor    %r10d,%r10d
  305a7a:	66 0f 1f 44 00 00    	nopw   0x0(%rax,%rax,1)
  305a80:	43 8d 04 92          	lea    (%r10,%r10,4),%eax
  305a84:	49 83 c5 01          	add    $0x1,%r13
  305a88:	44 8d 54 42 d0       	lea    -0x30(%rdx,%rax,2),%r10d
  305a8d:	41 0f be 55 00       	movsbl 0x0(%r13),%edx
  305a92:	0f b6 c2             	movzbl %dl,%eax
  305a95:	41 f6 04 04 04       	testb  $0x4,(%r12,%rax,1)
  305a9a:	75 e4                	jne    305a80 <vsscanf+0x110>
  305a9c:	89 d7                	mov    %edx,%edi
  305a9e:	89 d0                	mov    %edx,%eax
  305aa0:	83 e0 fb             	and    $0xfffffffb,%eax
  305aa3:	3c 68                	cmp    $0x68,%al
  305aa5:	75 49                	jne    305af0 <vsscanf+0x180>
  305aa7:	41 0f b6 7d 01       	movzbl 0x1(%r13),%edi
  305aac:	4d 8d 7d 01          	lea    0x1(%r13),%r15
  305ab0:	0f be f2             	movsbl %dl,%esi
  305ab3:	40 38 d7             	cmp    %dl,%dil
  305ab6:	0f 84 8e 07 00 00    	je     30624a <vsscanf+0x8da>
  305abc:	40 84 ff             	test   %dil,%dil
  305abf:	0f 84 73 ff ff ff    	je     305a38 <vsscanf+0xc8>
  305ac5:	0f b6 01             	movzbl (%rcx),%eax
  305ac8:	84 c0                	test   %al,%al
  305aca:	0f 84 5e ff ff ff    	je     305a2e <vsscanf+0xbe>
  305ad0:	83 ef 25             	sub    $0x25,%edi
  305ad3:	49 8d 5f 01          	lea    0x1(%r15),%rbx
  305ad7:	40 80 ff 53          	cmp    $0x53,%dil
  305adb:	0f 87 57 ff ff ff    	ja     305a38 <vsscanf+0xc8>
  305ae1:	40 0f b6 ff          	movzbl %dil,%edi
  305ae5:	41 ff 24 fb          	jmpq   *(%r11,%rdi,8)
  305ae9:	0f 1f 80 00 00 00 00 	nopl   0x0(%rax)
  305af0:	80 fa 4c             	cmp    $0x4c,%dl
  305af3:	0f 84 ef 04 00 00    	je     305fe8 <vsscanf+0x678>
  305af9:	89 d0                	mov    %edx,%eax
  305afb:	83 e0 df             	and    $0xffffffdf,%eax
  305afe:	3c 5a                	cmp    $0x5a,%al
  305b00:	0f 84 e2 04 00 00    	je     305fe8 <vsscanf+0x678>
  305b06:	4d 89 ef             	mov    %r13,%r15
  305b09:	be ff ff ff ff       	mov    $0xffffffff,%esi
  305b0e:	eb ac                	jmp    305abc <vsscanf+0x14c>
  305b10:	4c 89 fb             	mov    %r15,%rbx
  305b13:	e9 8f fe ff ff       	jmpq   3059a7 <vsscanf+0x37>
  305b18:	0f 1f 84 00 00 00 00 	nopl   0x0(%rax,%rax,1)
  305b1f:	00 
  305b20:	a0 4a b2 33 00 00 00 	movabs 0x33b24a,%al
  305b27:	00 00 
  305b29:	4c 89 eb             	mov    %r13,%rbx
  305b2c:	a8 20                	test   $0x20,%al
  305b2e:	74 18                	je     305b48 <vsscanf+0x1d8>
  305b30:	e9 0b 07 00 00       	jmpq   306240 <vsscanf+0x8d0>
  305b35:	0f 1f 00             	nopl   (%rax)
  305b38:	3c 25                	cmp    $0x25,%al
  305b3a:	0f 84 90 04 00 00    	je     305fd0 <vsscanf+0x660>
  305b40:	84 c0                	test   %al,%al
  305b42:	0f 84 92 04 00 00    	je     305fda <vsscanf+0x66a>
  305b48:	48 83 c3 01          	add    $0x1,%rbx
  305b4c:	0f b6 03             	movzbl (%rbx),%eax
  305b4f:	0f b6 d0             	movzbl %al,%edx
  305b52:	41 f6 04 14 20       	testb  $0x20,(%r12,%rdx,1)
  305b57:	74 df                	je     305b38 <vsscanf+0x1c8>
  305b59:	89 c7                	mov    %eax,%edi
  305b5b:	0f b6 01             	movzbl (%rcx),%eax
  305b5e:	0f b6 d0             	movzbl %al,%edx
  305b61:	41 f6 04 14 20       	testb  $0x20,(%r12,%rdx,1)
  305b66:	74 1d                	je     305b85 <vsscanf+0x215>
  305b68:	e9 3a fe ff ff       	jmpq   3059a7 <vsscanf+0x37>
  305b6d:	0f 1f 00             	nopl   (%rax)
  305b70:	48 83 c1 01          	add    $0x1,%rcx
  305b74:	0f b6 01             	movzbl (%rcx),%eax
  305b77:	0f b6 d0             	movzbl %al,%edx
  305b7a:	41 f6 04 14 20       	testb  $0x20,(%r12,%rdx,1)
  305b7f:	0f 85 22 fe ff ff    	jne    3059a7 <vsscanf+0x37>
  305b85:	84 c0                	test   %al,%al
  305b87:	75 e7                	jne    305b70 <vsscanf+0x200>
  305b89:	e9 19 fe ff ff       	jmpq   3059a7 <vsscanf+0x37>
  305b8e:	66 90                	xchg   %ax,%ax
  305b90:	41 80 7f 01 6e       	cmpb   $0x6e,0x1(%r15)
  305b95:	0f 85 9d fe ff ff    	jne    305a38 <vsscanf+0xc8>
  305b9b:	41 8b 10             	mov    (%r8),%edx
  305b9e:	83 fa 30             	cmp    $0x30,%edx
  305ba1:	0f 83 6a 04 00 00    	jae    306011 <vsscanf+0x6a1>
  305ba7:	89 d0                	mov    %edx,%eax
  305ba9:	49 03 40 10          	add    0x10(%r8),%rax
  305bad:	83 c2 08             	add    $0x8,%edx
  305bb0:	41 89 10             	mov    %edx,(%r8)
  305bb3:	48 8b 00             	mov    (%rax),%rax
  305bb6:	4c 29 c9             	sub    %r9,%rcx
  305bb9:	89 08                	mov    %ecx,(%rax)
  305bbb:	e9 78 fe ff ff       	jmpq   305a38 <vsscanf+0xc8>
  305bc0:	c6 45 c0 01          	movb   $0x1,-0x40(%rbp)
  305bc4:	41 ba 01 00 00 00    	mov    $0x1,%r10d
  305bca:	ba 0a 00 00 00       	mov    $0xa,%edx
  305bcf:	0f b6 f8             	movzbl %al,%edi
  305bd2:	49 89 cd             	mov    %rcx,%r13
  305bd5:	41 f6 04 3c 20       	testb  $0x20,(%r12,%rdi,1)
  305bda:	74 17                	je     305bf3 <vsscanf+0x283>
  305bdc:	0f 1f 40 00          	nopl   0x0(%rax)
  305be0:	49 83 c5 01          	add    $0x1,%r13
  305be4:	41 0f b6 45 00       	movzbl 0x0(%r13),%eax
  305be9:	0f b6 c8             	movzbl %al,%ecx
  305bec:	41 f6 04 0c 20       	testb  $0x20,(%r12,%rcx,1)
  305bf1:	75 ed                	jne    305be0 <vsscanf+0x270>
  305bf3:	3c 2d                	cmp    $0x2d,%al
  305bf5:	75 0b                	jne    305c02 <vsscanf+0x292>
  305bf7:	80 7d c0 00          	cmpb   $0x0,-0x40(%rbp)
  305bfb:	74 05                	je     305c02 <vsscanf+0x292>
  305bfd:	41 0f b6 45 01       	movzbl 0x1(%r13),%eax
  305c02:	84 c0                	test   %al,%al
  305c04:	0f 84 a2 03 00 00    	je     305fac <vsscanf+0x63c>
  305c0a:	83 fa 10             	cmp    $0x10,%edx
  305c0d:	0f 84 a9 03 00 00    	je     305fbc <vsscanf+0x64c>
  305c13:	83 fa 0a             	cmp    $0xa,%edx
  305c16:	0f 84 85 03 00 00    	je     305fa1 <vsscanf+0x631>
  305c1c:	83 fa 08             	cmp    $0x8,%edx
  305c1f:	90                   	nop
  305c20:	0f 85 73 03 00 00    	jne    305f99 <vsscanf+0x629>
  305c26:	0f b6 c8             	movzbl %al,%ecx
  305c29:	41 f6 04 0c 04       	testb  $0x4,(%r12,%rcx,1)
  305c2e:	0f 84 78 03 00 00    	je     305fac <vsscanf+0x63c>
  305c34:	3c 37                	cmp    $0x37,%al
  305c36:	0f 8f 70 03 00 00    	jg     305fac <vsscanf+0x63c>
  305c3c:	83 ee 48             	sub    $0x48,%esi
  305c3f:	41 8b 08             	mov    (%r8),%ecx
  305c42:	83 fe 32             	cmp    $0x32,%esi
  305c45:	0f 87 f3 02 00 00    	ja     305f3e <vsscanf+0x5ce>
  305c4b:	48 b8 50 d6 33 00 00 	movabs $0x33d650,%rax
  305c52:	00 00 00 
  305c55:	ff 24 f0             	jmpq   *(%rax,%rsi,8)
  305c58:	3c 25                	cmp    $0x25,%al
  305c5a:	0f 85 d8 fd ff ff    	jne    305a38 <vsscanf+0xc8>
  305c60:	48 83 c1 01          	add    $0x1,%rcx
  305c64:	41 0f b6 7f 01       	movzbl 0x1(%r15),%edi
  305c69:	e9 39 fd ff ff       	jmpq   3059a7 <vsscanf+0x37>
  305c6e:	c6 45 c0 00          	movb   $0x0,-0x40(%rbp)
  305c72:	45 31 d2             	xor    %r10d,%r10d
  305c75:	ba 0a 00 00 00       	mov    $0xa,%edx
  305c7a:	e9 50 ff ff ff       	jmpq   305bcf <vsscanf+0x25f>
  305c7f:	c6 45 c0 01          	movb   $0x1,-0x40(%rbp)
  305c83:	41 ba 01 00 00 00    	mov    $0x1,%r10d
  305c89:	31 d2                	xor    %edx,%edx
  305c8b:	e9 3f ff ff ff       	jmpq   305bcf <vsscanf+0x25f>
  305c90:	41 8b 10             	mov    (%r8),%edx
  305c93:	83 fa 30             	cmp    $0x30,%edx
  305c96:	0f 83 a8 03 00 00    	jae    306044 <vsscanf+0x6d4>
  305c9c:	89 d0                	mov    %edx,%eax
  305c9e:	49 03 40 10          	add    0x10(%r8),%rax
  305ca2:	83 c2 08             	add    $0x8,%edx
  305ca5:	41 89 10             	mov    %edx,(%r8)
  305ca8:	41 83 fa ff          	cmp    $0xffffffff,%r10d
  305cac:	ba ff ff ff 7f       	mov    $0x7fffffff,%edx
  305cb1:	48 8b 00             	mov    (%rax),%rax
  305cb4:	44 0f 44 d2          	cmove  %edx,%r10d
  305cb8:	0f b6 11             	movzbl (%rcx),%edx
  305cbb:	0f b6 f2             	movzbl %dl,%esi
  305cbe:	41 f6 04 34 20       	testb  $0x20,(%r12,%rsi,1)
  305cc3:	74 14                	je     305cd9 <vsscanf+0x369>
  305cc5:	0f 1f 00             	nopl   (%rax)
  305cc8:	48 83 c1 01          	add    $0x1,%rcx
  305ccc:	0f b6 11             	movzbl (%rcx),%edx
  305ccf:	0f b6 f2             	movzbl %dl,%esi
  305cd2:	41 f6 04 34 20       	testb  $0x20,(%r12,%rsi,1)
  305cd7:	75 ef                	jne    305cc8 <vsscanf+0x358>
  305cd9:	84 d2                	test   %dl,%dl
  305cdb:	74 44                	je     305d21 <vsscanf+0x3b1>
  305cdd:	0f b6 f2             	movzbl %dl,%esi
  305ce0:	41 f6 04 34 20       	testb  $0x20,(%r12,%rsi,1)
  305ce5:	75 3a                	jne    305d21 <vsscanf+0x3b1>
  305ce7:	45 85 d2             	test   %r10d,%r10d
  305cea:	74 35                	je     305d21 <vsscanf+0x3b1>
  305cec:	41 8d 72 ff          	lea    -0x1(%r10),%esi
  305cf0:	48 8d 7c 30 01       	lea    0x1(%rax,%rsi,1),%rdi
  305cf5:	eb 18                	jmp    305d0f <vsscanf+0x39f>
  305cf7:	66 0f 1f 84 00 00 00 	nopw   0x0(%rax,%rax,1)
  305cfe:	00 00 
  305d00:	0f b6 f2             	movzbl %dl,%esi
  305d03:	41 f6 04 34 20       	testb  $0x20,(%r12,%rsi,1)
  305d08:	75 17                	jne    305d21 <vsscanf+0x3b1>
  305d0a:	48 39 f8             	cmp    %rdi,%rax
  305d0d:	74 12                	je     305d21 <vsscanf+0x3b1>
  305d0f:	48 83 c0 01          	add    $0x1,%rax
  305d13:	48 83 c1 01          	add    $0x1,%rcx
  305d17:	88 50 ff             	mov    %dl,-0x1(%rax)
  305d1a:	0f b6 11             	movzbl (%rcx),%edx
  305d1d:	84 d2                	test   %dl,%dl
  305d1f:	75 df                	jne    305d00 <vsscanf+0x390>
  305d21:	c6 00 00             	movb   $0x0,(%rax)
  305d24:	41 83 c6 01          	add    $0x1,%r14d
  305d28:	41 0f b6 7f 01       	movzbl 0x1(%r15),%edi
  305d2d:	e9 75 fc ff ff       	jmpq   3059a7 <vsscanf+0x37>
  305d32:	c6 45 c0 00          	movb   $0x0,-0x40(%rbp)
  305d36:	45 31 d2             	xor    %r10d,%r10d
  305d39:	ba 10 00 00 00       	mov    $0x10,%edx
  305d3e:	e9 8c fe ff ff       	jmpq   305bcf <vsscanf+0x25f>
  305d43:	41 8b 10             	mov    (%r8),%edx
  305d46:	83 fa 30             	cmp    $0x30,%edx
  305d49:	0f 83 e4 02 00 00    	jae    306033 <vsscanf+0x6c3>
  305d4f:	89 d0                	mov    %edx,%eax
  305d51:	49 03 40 10          	add    0x10(%r8),%rax
  305d55:	83 c2 08             	add    $0x8,%edx
  305d58:	41 89 10             	mov    %edx,(%r8)
  305d5b:	ba 01 00 00 00       	mov    $0x1,%edx
  305d60:	41 83 fa ff          	cmp    $0xffffffff,%r10d
  305d64:	48 8b 00             	mov    (%rax),%rax
  305d67:	44 0f 44 d2          	cmove  %edx,%r10d
  305d6b:	0f b6 11             	movzbl (%rcx),%edx
  305d6e:	eb 07                	jmp    305d77 <vsscanf+0x407>
  305d70:	0f b6 11             	movzbl (%rcx),%edx
  305d73:	84 d2                	test   %dl,%dl
  305d75:	74 ad                	je     305d24 <vsscanf+0x3b4>
  305d77:	41 83 ea 01          	sub    $0x1,%r10d
  305d7b:	48 83 c0 01          	add    $0x1,%rax
  305d7f:	48 83 c1 01          	add    $0x1,%rcx
  305d83:	45 85 d2             	test   %r10d,%r10d
  305d86:	88 50 ff             	mov    %dl,-0x1(%rax)
  305d89:	7f e5                	jg     305d70 <vsscanf+0x400>
  305d8b:	eb 97                	jmp    305d24 <vsscanf+0x3b4>
  305d8d:	41 8b 10             	mov    (%r8),%edx
  305d90:	83 fa 30             	cmp    $0x30,%edx
  305d93:	0f 83 89 02 00 00    	jae    306022 <vsscanf+0x6b2>
  305d99:	89 d0                	mov    %edx,%eax
  305d9b:	49 03 40 10          	add    0x10(%r8),%rax
  305d9f:	83 c2 08             	add    $0x8,%edx
  305da2:	41 89 10             	mov    %edx,(%r8)
  305da5:	48 8b 00             	mov    (%rax),%rax
  305da8:	48 89 ca             	mov    %rcx,%rdx
  305dab:	4c 29 ca             	sub    %r9,%rdx
  305dae:	89 10                	mov    %edx,(%rax)
  305db0:	41 0f b6 7f 01       	movzbl 0x1(%r15),%edi
  305db5:	e9 ed fb ff ff       	jmpq   3059a7 <vsscanf+0x37>
  305dba:	c6 45 c0 00          	movb   $0x0,-0x40(%rbp)
  305dbe:	45 31 d2             	xor    %r10d,%r10d
  305dc1:	ba 08 00 00 00       	mov    $0x8,%edx
  305dc6:	e9 04 fe ff ff       	jmpq   305bcf <vsscanf+0x25f>
  305dcb:	45 85 d2             	test   %r10d,%r10d
  305dce:	0f 85 8d 03 00 00    	jne    306161 <vsscanf+0x7f1>
  305dd4:	83 f9 30             	cmp    $0x30,%ecx
  305dd7:	0f 83 23 02 00 00    	jae    306000 <vsscanf+0x690>
  305ddd:	89 c8                	mov    %ecx,%eax
  305ddf:	49 03 40 10          	add    0x10(%r8),%rax
  305de3:	83 c1 08             	add    $0x8,%ecx
  305de6:	41 89 08             	mov    %ecx,(%r8)
  305de9:	4c 89 45 a8          	mov    %r8,-0x58(%rbp)
  305ded:	4c 89 4d b0          	mov    %r9,-0x50(%rbp)
  305df1:	48 8d 75 d0          	lea    -0x30(%rbp),%rsi
  305df5:	4c 89 5d b8          	mov    %r11,-0x48(%rbp)
  305df9:	48 8b 08             	mov    (%rax),%rcx
  305dfc:	4c 89 ef             	mov    %r13,%rdi
  305dff:	48 b8 10 55 30 00 00 	movabs $0x305510,%rax
  305e06:	00 00 00 
  305e09:	48 89 4d c0          	mov    %rcx,-0x40(%rbp)
  305e0d:	ff d0                	callq  *%rax
  305e0f:	48 8b 4d c0          	mov    -0x40(%rbp),%rcx
  305e13:	48 89 01             	mov    %rax,(%rcx)
  305e16:	4c 8b 5d b8          	mov    -0x48(%rbp),%r11
  305e1a:	4c 8b 4d b0          	mov    -0x50(%rbp),%r9
  305e1e:	4c 8b 45 a8          	mov    -0x58(%rbp),%r8
  305e22:	48 8b 4d d0          	mov    -0x30(%rbp),%rcx
  305e26:	41 83 c6 01          	add    $0x1,%r14d
  305e2a:	41 0f b6 7f 01       	movzbl 0x1(%r15),%edi
  305e2f:	48 85 c9             	test   %rcx,%rcx
  305e32:	0f 85 6f fb ff ff    	jne    3059a7 <vsscanf+0x37>
  305e38:	49 89 df             	mov    %rbx,%r15
  305e3b:	4c 89 e9             	mov    %r13,%rcx
  305e3e:	e9 eb fb ff ff       	jmpq   305a2e <vsscanf+0xbe>
  305e43:	45 85 d2             	test   %r10d,%r10d
  305e46:	0f 84 d7 02 00 00    	je     306123 <vsscanf+0x7b3>
  305e4c:	83 f9 30             	cmp    $0x30,%ecx
  305e4f:	0f 83 b8 03 00 00    	jae    30620d <vsscanf+0x89d>
  305e55:	89 c8                	mov    %ecx,%eax
  305e57:	49 03 40 10          	add    0x10(%r8),%rax
  305e5b:	83 c1 08             	add    $0x8,%ecx
  305e5e:	41 89 08             	mov    %ecx,(%r8)
  305e61:	48 8b 08             	mov    (%rax),%rcx
  305e64:	48 8d 75 d0          	lea    -0x30(%rbp),%rsi
  305e68:	4c 89 45 a8          	mov    %r8,-0x58(%rbp)
  305e6c:	4c 89 4d b0          	mov    %r9,-0x50(%rbp)
  305e70:	4c 89 5d b8          	mov    %r11,-0x48(%rbp)
  305e74:	4c 89 ef             	mov    %r13,%rdi
  305e77:	48 b8 10 56 30 00 00 	movabs $0x305610,%rax
  305e7e:	00 00 00 
  305e81:	48 89 4d c0          	mov    %rcx,-0x40(%rbp)
  305e85:	ff d0                	callq  *%rax
  305e87:	48 8b 4d c0          	mov    -0x40(%rbp),%rcx
  305e8b:	66 89 01             	mov    %ax,(%rcx)
  305e8e:	4c 8b 5d b8          	mov    -0x48(%rbp),%r11
  305e92:	4c 8b 4d b0          	mov    -0x50(%rbp),%r9
  305e96:	4c 8b 45 a8          	mov    -0x58(%rbp),%r8
  305e9a:	eb 86                	jmp    305e22 <vsscanf+0x4b2>
  305e9c:	45 85 d2             	test   %r10d,%r10d
  305e9f:	0f 84 40 02 00 00    	je     3060e5 <vsscanf+0x775>
  305ea5:	83 f9 30             	cmp    $0x30,%ecx
  305ea8:	0f 83 70 03 00 00    	jae    30621e <vsscanf+0x8ae>
  305eae:	89 c8                	mov    %ecx,%eax
  305eb0:	49 03 40 10          	add    0x10(%r8),%rax
  305eb4:	83 c1 08             	add    $0x8,%ecx
  305eb7:	41 89 08             	mov    %ecx,(%r8)
  305eba:	48 8b 08             	mov    (%rax),%rcx
  305ebd:	4c 89 45 a8          	mov    %r8,-0x58(%rbp)
  305ec1:	48 8d 75 d0          	lea    -0x30(%rbp),%rsi
  305ec5:	4c 89 4d b0          	mov    %r9,-0x50(%rbp)
  305ec9:	4c 89 5d b8          	mov    %r11,-0x48(%rbp)
  305ecd:	4c 89 ef             	mov    %r13,%rdi
  305ed0:	48 b8 50 57 30 00 00 	movabs $0x305750,%rax
  305ed7:	00 00 00 
  305eda:	48 89 4d c0          	mov    %rcx,-0x40(%rbp)
  305ede:	e9 2a ff ff ff       	jmpq   305e0d <vsscanf+0x49d>
  305ee3:	45 85 d2             	test   %r10d,%r10d
  305ee6:	0f 84 bb 01 00 00    	je     3060a7 <vsscanf+0x737>
  305eec:	83 f9 30             	cmp    $0x30,%ecx
  305eef:	0f 83 c3 02 00 00    	jae    3061b8 <vsscanf+0x848>
  305ef5:	89 c8                	mov    %ecx,%eax
  305ef7:	49 03 40 10          	add    0x10(%r8),%rax
  305efb:	83 c1 08             	add    $0x8,%ecx
  305efe:	41 89 08             	mov    %ecx,(%r8)
  305f01:	48 8b 08             	mov    (%rax),%rcx
  305f04:	48 8d 75 d0          	lea    -0x30(%rbp),%rsi
  305f08:	4c 89 45 a8          	mov    %r8,-0x58(%rbp)
  305f0c:	4c 89 4d b0          	mov    %r9,-0x50(%rbp)
  305f10:	4c 89 5d b8          	mov    %r11,-0x48(%rbp)
  305f14:	4c 89 ef             	mov    %r13,%rdi
  305f17:	48 b8 10 56 30 00 00 	movabs $0x305610,%rax
  305f1e:	00 00 00 
  305f21:	48 89 4d c0          	mov    %rcx,-0x40(%rbp)
  305f25:	ff d0                	callq  *%rax
  305f27:	48 8b 4d c0          	mov    -0x40(%rbp),%rcx
  305f2b:	88 01                	mov    %al,(%rcx)
  305f2d:	4c 8b 5d b8          	mov    -0x48(%rbp),%r11
  305f31:	4c 8b 4d b0          	mov    -0x50(%rbp),%r9
  305f35:	4c 8b 45 a8          	mov    -0x58(%rbp),%r8
  305f39:	e9 e4 fe ff ff       	jmpq   305e22 <vsscanf+0x4b2>
  305f3e:	45 85 d2             	test   %r10d,%r10d
  305f41:	0f 84 0e 01 00 00    	je     306055 <vsscanf+0x6e5>
  305f47:	83 f9 30             	cmp    $0x30,%ecx
  305f4a:	0f 83 79 02 00 00    	jae    3061c9 <vsscanf+0x859>
  305f50:	89 c8                	mov    %ecx,%eax
  305f52:	49 03 40 10          	add    0x10(%r8),%rax
  305f56:	83 c1 08             	add    $0x8,%ecx
  305f59:	41 89 08             	mov    %ecx,(%r8)
  305f5c:	48 8b 08             	mov    (%rax),%rcx
  305f5f:	4c 89 45 a8          	mov    %r8,-0x58(%rbp)
  305f63:	48 8d 75 d0          	lea    -0x30(%rbp),%rsi
  305f67:	4c 89 4d b0          	mov    %r9,-0x50(%rbp)
  305f6b:	4c 89 5d b8          	mov    %r11,-0x48(%rbp)
  305f6f:	4c 89 ef             	mov    %r13,%rdi
  305f72:	48 b8 10 56 30 00 00 	movabs $0x305610,%rax
  305f79:	00 00 00 
  305f7c:	48 89 4d c0          	mov    %rcx,-0x40(%rbp)
  305f80:	ff d0                	callq  *%rax
  305f82:	48 8b 4d c0          	mov    -0x40(%rbp),%rcx
  305f86:	4c 8b 5d b8          	mov    -0x48(%rbp),%r11
  305f8a:	4c 8b 4d b0          	mov    -0x50(%rbp),%r9
  305f8e:	4c 8b 45 a8          	mov    -0x58(%rbp),%r8
  305f92:	89 01                	mov    %eax,(%rcx)
  305f94:	e9 89 fe ff ff       	jmpq   305e22 <vsscanf+0x4b2>
  305f99:	85 d2                	test   %edx,%edx
  305f9b:	0f 85 9b fc ff ff    	jne    305c3c <vsscanf+0x2cc>
  305fa1:	41 f6 04 04 04       	testb  $0x4,(%r12,%rax,1)
  305fa6:	0f 85 90 fc ff ff    	jne    305c3c <vsscanf+0x2cc>
  305fac:	41 0f b6 7f 01       	movzbl 0x1(%r15),%edi
  305fb1:	4c 89 e9             	mov    %r13,%rcx
  305fb4:	49 89 df             	mov    %rbx,%r15
  305fb7:	e9 72 fa ff ff       	jmpq   305a2e <vsscanf+0xbe>
  305fbc:	41 f6 04 04 44       	testb  $0x44,(%r12,%rax,1)
  305fc1:	0f 85 75 fc ff ff    	jne    305c3c <vsscanf+0x2cc>
  305fc7:	eb e3                	jmp    305fac <vsscanf+0x63c>
  305fc9:	0f 1f 80 00 00 00 00 	nopl   0x0(%rax)
  305fd0:	bf 25 00 00 00       	mov    $0x25,%edi
  305fd5:	e9 81 fb ff ff       	jmpq   305b5b <vsscanf+0x1eb>
  305fda:	31 ff                	xor    %edi,%edi
  305fdc:	0f 1f 40 00          	nopl   0x0(%rax)
  305fe0:	e9 76 fb ff ff       	jmpq   305b5b <vsscanf+0x1eb>
  305fe5:	0f 1f 00             	nopl   (%rax)
  305fe8:	4d 8d 7d 01          	lea    0x1(%r13),%r15
  305fec:	0f be f2             	movsbl %dl,%esi
  305fef:	41 0f b6 7d 01       	movzbl 0x1(%r13),%edi
  305ff4:	e9 c3 fa ff ff       	jmpq   305abc <vsscanf+0x14c>
  305ff9:	0f 1f 80 00 00 00 00 	nopl   0x0(%rax)
  306000:	49 8b 40 08          	mov    0x8(%r8),%rax
  306004:	48 8d 48 08          	lea    0x8(%rax),%rcx
  306008:	49 89 48 08          	mov    %rcx,0x8(%r8)
  30600c:	e9 d8 fd ff ff       	jmpq   305de9 <vsscanf+0x479>
  306011:	49 8b 40 08          	mov    0x8(%r8),%rax
  306015:	48 8d 50 08          	lea    0x8(%rax),%rdx
  306019:	49 89 50 08          	mov    %rdx,0x8(%r8)
  30601d:	e9 91 fb ff ff       	jmpq   305bb3 <vsscanf+0x243>
  306022:	49 8b 40 08          	mov    0x8(%r8),%rax
  306026:	48 8d 50 08          	lea    0x8(%rax),%rdx
  30602a:	49 89 50 08          	mov    %rdx,0x8(%r8)
  30602e:	e9 72 fd ff ff       	jmpq   305da5 <vsscanf+0x435>
  306033:	49 8b 40 08          	mov    0x8(%r8),%rax
  306037:	48 8d 50 08          	lea    0x8(%rax),%rdx
  30603b:	49 89 50 08          	mov    %rdx,0x8(%r8)
  30603f:	e9 17 fd ff ff       	jmpq   305d5b <vsscanf+0x3eb>
  306044:	49 8b 40 08          	mov    0x8(%r8),%rax
  306048:	48 8d 50 08          	lea    0x8(%rax),%rdx
  30604c:	49 89 50 08          	mov    %rdx,0x8(%r8)
  306050:	e9 53 fc ff ff       	jmpq   305ca8 <vsscanf+0x338>
  306055:	83 f9 30             	cmp    $0x30,%ecx
  306058:	0f 83 49 01 00 00    	jae    3061a7 <vsscanf+0x837>
  30605e:	89 c8                	mov    %ecx,%eax
  306060:	49 03 40 10          	add    0x10(%r8),%rax
  306064:	83 c1 08             	add    $0x8,%ecx
  306067:	41 89 08             	mov    %ecx,(%r8)
  30606a:	48 8b 08             	mov    (%rax),%rcx
  30606d:	4c 89 45 a8          	mov    %r8,-0x58(%rbp)
  306071:	48 8d 75 d0          	lea    -0x30(%rbp),%rsi
  306075:	4c 89 4d b0          	mov    %r9,-0x50(%rbp)
  306079:	4c 89 5d b8          	mov    %r11,-0x48(%rbp)
  30607d:	4c 89 ef             	mov    %r13,%rdi
  306080:	48 b8 10 55 30 00 00 	movabs $0x305510,%rax
  306087:	00 00 00 
  30608a:	48 89 4d c0          	mov    %rcx,-0x40(%rbp)
  30608e:	ff d0                	callq  *%rax
  306090:	48 8b 4d c0          	mov    -0x40(%rbp),%rcx
  306094:	4c 8b 45 a8          	mov    -0x58(%rbp),%r8
  306098:	4c 8b 4d b0          	mov    -0x50(%rbp),%r9
  30609c:	4c 8b 5d b8          	mov    -0x48(%rbp),%r11
  3060a0:	89 01                	mov    %eax,(%rcx)
  3060a2:	e9 7b fd ff ff       	jmpq   305e22 <vsscanf+0x4b2>
  3060a7:	83 f9 30             	cmp    $0x30,%ecx
  3060aa:	0f 83 2a 01 00 00    	jae    3061da <vsscanf+0x86a>
  3060b0:	89 c8                	mov    %ecx,%eax
  3060b2:	49 03 40 10          	add    0x10(%r8),%rax
  3060b6:	83 c1 08             	add    $0x8,%ecx
  3060b9:	41 89 08             	mov    %ecx,(%r8)
  3060bc:	48 8b 08             	mov    (%rax),%rcx
  3060bf:	4c 89 45 a8          	mov    %r8,-0x58(%rbp)
  3060c3:	48 8d 75 d0          	lea    -0x30(%rbp),%rsi
  3060c7:	4c 89 4d b0          	mov    %r9,-0x50(%rbp)
  3060cb:	4c 89 5d b8          	mov    %r11,-0x48(%rbp)
  3060cf:	4c 89 ef             	mov    %r13,%rdi
  3060d2:	48 b8 10 55 30 00 00 	movabs $0x305510,%rax
  3060d9:	00 00 00 
  3060dc:	48 89 4d c0          	mov    %rcx,-0x40(%rbp)
  3060e0:	e9 40 fe ff ff       	jmpq   305f25 <vsscanf+0x5b5>
  3060e5:	83 f9 30             	cmp    $0x30,%ecx
  3060e8:	0f 83 0e 01 00 00    	jae    3061fc <vsscanf+0x88c>
  3060ee:	89 c8                	mov    %ecx,%eax
  3060f0:	49 03 40 10          	add    0x10(%r8),%rax
  3060f4:	83 c1 08             	add    $0x8,%ecx
  3060f7:	41 89 08             	mov    %ecx,(%r8)
  3060fa:	48 8b 08             	mov    (%rax),%rcx
  3060fd:	4c 89 45 a8          	mov    %r8,-0x58(%rbp)
  306101:	48 8d 75 d0          	lea    -0x30(%rbp),%rsi
  306105:	4c 89 4d b0          	mov    %r9,-0x50(%rbp)
  306109:	4c 89 5d b8          	mov    %r11,-0x48(%rbp)
  30610d:	4c 89 ef             	mov    %r13,%rdi
  306110:	48 b8 50 56 30 00 00 	movabs $0x305650,%rax
  306117:	00 00 00 
  30611a:	48 89 4d c0          	mov    %rcx,-0x40(%rbp)
  30611e:	e9 ea fc ff ff       	jmpq   305e0d <vsscanf+0x49d>
  306123:	83 f9 30             	cmp    $0x30,%ecx
  306126:	0f 83 03 01 00 00    	jae    30622f <vsscanf+0x8bf>
  30612c:	89 c8                	mov    %ecx,%eax
  30612e:	49 03 40 10          	add    0x10(%r8),%rax
  306132:	83 c1 08             	add    $0x8,%ecx
  306135:	41 89 08             	mov    %ecx,(%r8)
  306138:	48 8b 08             	mov    (%rax),%rcx
  30613b:	4c 89 45 a8          	mov    %r8,-0x58(%rbp)
  30613f:	48 8d 75 d0          	lea    -0x30(%rbp),%rsi
  306143:	4c 89 4d b0          	mov    %r9,-0x50(%rbp)
  306147:	4c 89 5d b8          	mov    %r11,-0x48(%rbp)
  30614b:	4c 89 ef             	mov    %r13,%rdi
  30614e:	48 b8 10 55 30 00 00 	movabs $0x305510,%rax
  306155:	00 00 00 
  306158:	48 89 4d c0          	mov    %rcx,-0x40(%rbp)
  30615c:	e9 24 fd ff ff       	jmpq   305e85 <vsscanf+0x515>
  306161:	83 f9 30             	cmp    $0x30,%ecx
  306164:	0f 83 81 00 00 00    	jae    3061eb <vsscanf+0x87b>
  30616a:	89 c8                	mov    %ecx,%eax
  30616c:	49 03 40 10          	add    0x10(%r8),%rax
  306170:	83 c1 08             	add    $0x8,%ecx
  306173:	41 89 08             	mov    %ecx,(%r8)
  306176:	48 8b 08             	mov    (%rax),%rcx
  306179:	4c 89 45 a8          	mov    %r8,-0x58(%rbp)
  30617d:	48 8d 75 d0          	lea    -0x30(%rbp),%rsi
  306181:	4c 89 4d b0          	mov    %r9,-0x50(%rbp)
  306185:	4c 89 5d b8          	mov    %r11,-0x48(%rbp)
  306189:	4c 89 ef             	mov    %r13,%rdi
  30618c:	48 b8 10 56 30 00 00 	movabs $0x305610,%rax
  306193:	00 00 00 
  306196:	48 89 4d c0          	mov    %rcx,-0x40(%rbp)
  30619a:	e9 6e fc ff ff       	jmpq   305e0d <vsscanf+0x49d>
  30619f:	49 89 df             	mov    %rbx,%r15
  3061a2:	e9 87 f8 ff ff       	jmpq   305a2e <vsscanf+0xbe>
  3061a7:	49 8b 40 08          	mov    0x8(%r8),%rax
  3061ab:	48 8d 48 08          	lea    0x8(%rax),%rcx
  3061af:	49 89 48 08          	mov    %rcx,0x8(%r8)
  3061b3:	e9 b2 fe ff ff       	jmpq   30606a <vsscanf+0x6fa>
  3061b8:	49 8b 40 08          	mov    0x8(%r8),%rax
  3061bc:	48 8d 48 08          	lea    0x8(%rax),%rcx
  3061c0:	49 89 48 08          	mov    %rcx,0x8(%r8)
  3061c4:	e9 38 fd ff ff       	jmpq   305f01 <vsscanf+0x591>
  3061c9:	49 8b 40 08          	mov    0x8(%r8),%rax
  3061cd:	48 8d 48 08          	lea    0x8(%rax),%rcx
  3061d1:	49 89 48 08          	mov    %rcx,0x8(%r8)
  3061d5:	e9 82 fd ff ff       	jmpq   305f5c <vsscanf+0x5ec>
  3061da:	49 8b 40 08          	mov    0x8(%r8),%rax
  3061de:	48 8d 48 08          	lea    0x8(%rax),%rcx
  3061e2:	49 89 48 08          	mov    %rcx,0x8(%r8)
  3061e6:	e9 d1 fe ff ff       	jmpq   3060bc <vsscanf+0x74c>
  3061eb:	49 8b 40 08          	mov    0x8(%r8),%rax
  3061ef:	48 8d 48 08          	lea    0x8(%rax),%rcx
  3061f3:	49 89 48 08          	mov    %rcx,0x8(%r8)
  3061f7:	e9 7a ff ff ff       	jmpq   306176 <vsscanf+0x806>
  3061fc:	49 8b 40 08          	mov    0x8(%r8),%rax
  306200:	48 8d 48 08          	lea    0x8(%rax),%rcx
  306204:	49 89 48 08          	mov    %rcx,0x8(%r8)
  306208:	e9 ed fe ff ff       	jmpq   3060fa <vsscanf+0x78a>
  30620d:	49 8b 40 08          	mov    0x8(%r8),%rax
  306211:	48 8d 48 08          	lea    0x8(%rax),%rcx
  306215:	49 89 48 08          	mov    %rcx,0x8(%r8)
  306219:	e9 43 fc ff ff       	jmpq   305e61 <vsscanf+0x4f1>
  30621e:	49 8b 40 08          	mov    0x8(%r8),%rax
  306222:	48 8d 48 08          	lea    0x8(%rax),%rcx
  306226:	49 89 48 08          	mov    %rcx,0x8(%r8)
  30622a:	e9 8b fc ff ff       	jmpq   305eba <vsscanf+0x54a>
  30622f:	49 8b 40 08          	mov    0x8(%r8),%rax
  306233:	48 8d 48 08          	lea    0x8(%rax),%rcx
  306237:	49 89 48 08          	mov    %rcx,0x8(%r8)
  30623b:	e9 f8 fe ff ff       	jmpq   306138 <vsscanf+0x7c8>
  306240:	bf 2a 00 00 00       	mov    $0x2a,%edi
  306245:	e9 11 f9 ff ff       	jmpq   305b5b <vsscanf+0x1eb>
  30624a:	83 fe 68             	cmp    $0x68,%esi
  30624d:	74 1a                	je     306269 <vsscanf+0x8f9>
  30624f:	83 fe 6c             	cmp    $0x6c,%esi
  306252:	0f 85 64 f8 ff ff    	jne    305abc <vsscanf+0x14c>
  306258:	4d 8d 7d 02          	lea    0x2(%r13),%r15
  30625c:	41 0f b6 7d 02       	movzbl 0x2(%r13),%edi
  306261:	40 b6 4c             	mov    $0x4c,%sil
  306264:	e9 53 f8 ff ff       	jmpq   305abc <vsscanf+0x14c>
  306269:	4d 8d 7d 02          	lea    0x2(%r13),%r15
  30626d:	41 0f b6 7d 02       	movzbl 0x2(%r13),%edi
  306272:	40 b6 48             	mov    $0x48,%sil
  306275:	e9 42 f8 ff ff       	jmpq   305abc <vsscanf+0x14c>
  30627a:	66 0f 1f 44 00 00    	nopw   0x0(%rax,%rax,1)

0000000000306280 <sscanf>:
  306280:	55                   	push   %rbp
  306281:	48 89 e5             	mov    %rsp,%rbp
  306284:	48 81 ec d0 00 00 00 	sub    $0xd0,%rsp
  30628b:	84 c0                	test   %al,%al
  30628d:	48 89 95 60 ff ff ff 	mov    %rdx,-0xa0(%rbp)
  306294:	48 89 8d 68 ff ff ff 	mov    %rcx,-0x98(%rbp)
  30629b:	4c 89 85 70 ff ff ff 	mov    %r8,-0x90(%rbp)
  3062a2:	4c 89 8d 78 ff ff ff 	mov    %r9,-0x88(%rbp)
  3062a9:	74 20                	je     3062cb <sscanf+0x4b>
  3062ab:	0f 29 45 80          	movaps %xmm0,-0x80(%rbp)
  3062af:	0f 29 4d 90          	movaps %xmm1,-0x70(%rbp)
  3062b3:	0f 29 55 a0          	movaps %xmm2,-0x60(%rbp)
  3062b7:	0f 29 5d b0          	movaps %xmm3,-0x50(%rbp)
  3062bb:	0f 29 65 c0          	movaps %xmm4,-0x40(%rbp)
  3062bf:	0f 29 6d d0          	movaps %xmm5,-0x30(%rbp)
  3062c3:	0f 29 75 e0          	movaps %xmm6,-0x20(%rbp)
  3062c7:	0f 29 7d f0          	movaps %xmm7,-0x10(%rbp)
  3062cb:	48 8d 45 10          	lea    0x10(%rbp),%rax
  3062cf:	48 8d 95 38 ff ff ff 	lea    -0xc8(%rbp),%rdx
  3062d6:	48 89 85 40 ff ff ff 	mov    %rax,-0xc0(%rbp)
  3062dd:	48 8d 85 50 ff ff ff 	lea    -0xb0(%rbp),%rax
  3062e4:	c7 85 38 ff ff ff 10 	movl   $0x10,-0xc8(%rbp)
  3062eb:	00 00 00 
  3062ee:	c7 85 3c ff ff ff 30 	movl   $0x30,-0xc4(%rbp)
  3062f5:	00 00 00 
  3062f8:	48 89 85 48 ff ff ff 	mov    %rax,-0xb8(%rbp)
  3062ff:	48 b8 70 59 30 00 00 	movabs $0x305970,%rax
  306306:	00 00 00 
  306309:	ff d0                	callq  *%rax
  30630b:	c9                   	leaveq 
  30630c:	c3                   	retq   
  30630d:	0f 1f 00             	nopl   (%rax)

0000000000306310 <warn_slowpath>:
  306310:	55                   	push   %rbp
  306311:	48 89 e5             	mov    %rsp,%rbp
  306314:	53                   	push   %rbx
  306315:	48 81 ec d8 00 00 00 	sub    $0xd8,%rsp
  30631c:	84 c0                	test   %al,%al
  30631e:	48 89 8d 58 ff ff ff 	mov    %rcx,-0xa8(%rbp)
  306325:	4c 89 85 60 ff ff ff 	mov    %r8,-0xa0(%rbp)
  30632c:	4c 89 8d 68 ff ff ff 	mov    %r9,-0x98(%rbp)
  306333:	74 23                	je     306358 <warn_slowpath+0x48>
  306335:	0f 29 85 70 ff ff ff 	movaps %xmm0,-0x90(%rbp)
  30633c:	0f 29 4d 80          	movaps %xmm1,-0x80(%rbp)
  306340:	0f 29 55 90          	movaps %xmm2,-0x70(%rbp)
  306344:	0f 29 5d a0          	movaps %xmm3,-0x60(%rbp)
  306348:	0f 29 65 b0          	movaps %xmm4,-0x50(%rbp)
  30634c:	0f 29 6d c0          	movaps %xmm5,-0x40(%rbp)
  306350:	0f 29 75 d0          	movaps %xmm6,-0x30(%rbp)
  306354:	0f 29 7d e0          	movaps %xmm7,-0x20(%rbp)
  306358:	48 89 d3             	mov    %rdx,%rbx
  30635b:	48 b9 70 54 30 00 00 	movabs $0x305470,%rcx
  306362:	00 00 00 
  306365:	89 f2                	mov    %esi,%edx
  306367:	31 c0                	xor    %eax,%eax
  306369:	48 89 fe             	mov    %rdi,%rsi
  30636c:	48 bf 66 eb 33 00 00 	movabs $0x33eb66,%rdi
  306373:	00 00 00 
  306376:	ff d1                	callq  *%rcx
  306378:	48 8d 45 10          	lea    0x10(%rbp),%rax
  30637c:	c7 85 28 ff ff ff 18 	movl   $0x18,-0xd8(%rbp)
  306383:	00 00 00 
  306386:	c7 85 2c ff ff ff 30 	movl   $0x30,-0xd4(%rbp)
  30638d:	00 00 00 
  306390:	48 8d b5 28 ff ff ff 	lea    -0xd8(%rbp),%rsi
  306397:	48 89 df             	mov    %rbx,%rdi
  30639a:	48 89 85 30 ff ff ff 	mov    %rax,-0xd0(%rbp)
  3063a1:	48 8d 85 40 ff ff ff 	lea    -0xc0(%rbp),%rax
  3063a8:	48 89 85 38 ff ff ff 	mov    %rax,-0xc8(%rbp)
  3063af:	48 b8 30 53 30 00 00 	movabs $0x305330,%rax
  3063b6:	00 00 00 
  3063b9:	ff d0                	callq  *%rax
  3063bb:	48 81 c4 d8 00 00 00 	add    $0xd8,%rsp
  3063c2:	5b                   	pop    %rbx
  3063c3:	5d                   	pop    %rbp
  3063c4:	c3                   	retq   
  3063c5:	66 66 2e 0f 1f 84 00 	data32 nopw %cs:0x0(%rax,%rax,1)
  3063cc:	00 00 00 00 

00000000003063d0 <vsnprintf>:
  3063d0:	55                   	push   %rbp
  3063d1:	48 89 e5             	mov    %rsp,%rbp
  3063d4:	41 57                	push   %r15
  3063d6:	41 56                	push   %r14
  3063d8:	41 55                	push   %r13
  3063da:	41 54                	push   %r12
  3063dc:	53                   	push   %rbx
  3063dd:	48 81 ec 98 00 00 00 	sub    $0x98,%rsp
  3063e4:	85 f6                	test   %esi,%esi
  3063e6:	48 89 75 80          	mov    %rsi,-0x80(%rbp)
  3063ea:	0f 88 a4 0d 00 00    	js     307194 <vsnprintf+0xdc4>
  3063f0:	4c 8b 6d 80          	mov    -0x80(%rbp),%r13
  3063f4:	49 89 fc             	mov    %rdi,%r12
  3063f7:	48 89 d3             	mov    %rdx,%rbx
  3063fa:	49 89 ca             	mov    %rcx,%r10
  3063fd:	49 01 fd             	add    %rdi,%r13
  306400:	0f 82 85 04 00 00    	jb     30688b <vsnprintf+0x4bb>
  306406:	48 89 bd 78 ff ff ff 	mov    %rdi,-0x88(%rbp)
  30640d:	0f b6 03             	movzbl (%rbx),%eax
  306410:	c7 45 8c 00 00 00 00 	movl   $0x0,-0x74(%rbp)
  306417:	45 31 f6             	xor    %r14d,%r14d
  30641a:	45 31 db             	xor    %r11d,%r11d
  30641d:	45 31 ff             	xor    %r15d,%r15d
  306420:	84 c0                	test   %al,%al
  306422:	0f 84 b8 00 00 00    	je     3064e0 <vsnprintf+0x110>
  306428:	41 83 ff 01          	cmp    $0x1,%r15d
  30642c:	0f 84 de 00 00 00    	je     306510 <vsnprintf+0x140>
  306432:	41 83 ff 02          	cmp    $0x2,%r15d
  306436:	0f 84 8c 02 00 00    	je     3066c8 <vsnprintf+0x2f8>
  30643c:	3c 25                	cmp    $0x25,%al
  30643e:	0f 84 a5 02 00 00    	je     3066e9 <vsnprintf+0x319>
  306444:	48 89 d9             	mov    %rbx,%rcx
  306447:	eb 10                	jmp    306459 <vsnprintf+0x89>
  306449:	0f 1f 80 00 00 00 00 	nopl   0x0(%rax)
  306450:	80 fa 25             	cmp    $0x25,%dl
  306453:	0f 84 87 02 00 00    	je     3066e0 <vsnprintf+0x310>
  306459:	48 8d 41 01          	lea    0x1(%rcx),%rax
  30645d:	0f b6 10             	movzbl (%rax),%edx
  306460:	48 89 c1             	mov    %rax,%rcx
  306463:	84 d2                	test   %dl,%dl
  306465:	75 e9                	jne    306450 <vsnprintf+0x80>
  306467:	48 29 d8             	sub    %rbx,%rax
  30646a:	4d 39 ec             	cmp    %r13,%r12
  30646d:	4c 63 f8             	movslq %eax,%r15
  306470:	89 c2                	mov    %eax,%edx
  306472:	4a 8d 0c 3b          	lea    (%rbx,%r15,1),%rcx
  306476:	73 4b                	jae    3064c3 <vsnprintf+0xf3>
  306478:	4c 89 e8             	mov    %r13,%rax
  30647b:	4c 89 95 60 ff ff ff 	mov    %r10,-0xa0(%rbp)
  306482:	44 89 9d 68 ff ff ff 	mov    %r11d,-0x98(%rbp)
  306489:	4c 29 e0             	sub    %r12,%rax
  30648c:	48 89 8d 70 ff ff ff 	mov    %rcx,-0x90(%rbp)
  306493:	48 89 de             	mov    %rbx,%rsi
  306496:	49 39 c7             	cmp    %rax,%r15
  306499:	4c 89 e7             	mov    %r12,%rdi
  30649c:	0f 4f d0             	cmovg  %eax,%edx
  30649f:	48 b8 d0 d2 30 00 00 	movabs $0x30d2d0,%rax
  3064a6:	00 00 00 
  3064a9:	48 63 d2             	movslq %edx,%rdx
  3064ac:	ff d0                	callq  *%rax
  3064ae:	4c 8b 95 60 ff ff ff 	mov    -0xa0(%rbp),%r10
  3064b5:	44 8b 9d 68 ff ff ff 	mov    -0x98(%rbp),%r11d
  3064bc:	48 8b 8d 70 ff ff ff 	mov    -0x90(%rbp),%rcx
  3064c3:	0f b6 01             	movzbl (%rcx),%eax
  3064c6:	4d 01 fc             	add    %r15,%r12
  3064c9:	45 31 ff             	xor    %r15d,%r15d
  3064cc:	48 89 cb             	mov    %rcx,%rbx
  3064cf:	84 c0                	test   %al,%al
  3064d1:	0f 85 51 ff ff ff    	jne    306428 <vsnprintf+0x58>
  3064d7:	66 0f 1f 84 00 00 00 	nopw   0x0(%rax,%rax,1)
  3064de:	00 00 
  3064e0:	48 83 7d 80 00       	cmpq   $0x0,-0x80(%rbp)
  3064e5:	74 0e                	je     3064f5 <vsnprintf+0x125>
  3064e7:	4d 39 e5             	cmp    %r12,%r13
  3064ea:	0f 86 90 06 00 00    	jbe    306b80 <vsnprintf+0x7b0>
  3064f0:	41 c6 04 24 00       	movb   $0x0,(%r12)
  3064f5:	44 89 e0             	mov    %r12d,%eax
  3064f8:	2b 85 78 ff ff ff    	sub    -0x88(%rbp),%eax
  3064fe:	48 81 c4 98 00 00 00 	add    $0x98,%rsp
  306505:	5b                   	pop    %rbx
  306506:	41 5c                	pop    %r12
  306508:	41 5d                	pop    %r13
  30650a:	41 5e                	pop    %r14
  30650c:	41 5f                	pop    %r15
  30650e:	5d                   	pop    %rbp
  30650f:	c3                   	retq   
  306510:	45 85 f6             	test   %r14d,%r14d
  306513:	0f 88 2f 03 00 00    	js     306848 <vsnprintf+0x478>
  306519:	48 89 da             	mov    %rbx,%rdx
  30651c:	3c 2e                	cmp    $0x2e,%al
  30651e:	c7 45 8c ff ff ff ff 	movl   $0xffffffff,-0x74(%rbp)
  306525:	0f 84 c5 02 00 00    	je     3067f0 <vsnprintf+0x420>
  30652b:	89 c1                	mov    %eax,%ecx
  30652d:	83 e1 fb             	and    $0xfffffffb,%ecx
  306530:	80 f9 68             	cmp    $0x68,%cl
  306533:	0f 84 47 01 00 00    	je     306680 <vsnprintf+0x2b0>
  306539:	3c 4c                	cmp    $0x4c,%al
  30653b:	0f 84 c7 0c 00 00    	je     307208 <vsnprintf+0xe38>
  306541:	89 c1                	mov    %eax,%ecx
  306543:	83 e1 df             	and    $0xffffffdf,%ecx
  306546:	80 f9 5a             	cmp    $0x5a,%cl
  306549:	0f 84 b9 0c 00 00    	je     307208 <vsnprintf+0xe38>
  30654f:	3c 74                	cmp    $0x74,%al
  306551:	0f 84 b1 0c 00 00    	je     307208 <vsnprintf+0xe38>
  306557:	48 89 d7             	mov    %rdx,%rdi
  30655a:	be ff ff ff ff       	mov    $0xffffffff,%esi
  30655f:	83 e8 25             	sub    $0x25,%eax
  306562:	3c 53                	cmp    $0x53,%al
  306564:	0f 87 36 01 00 00    	ja     3066a0 <vsnprintf+0x2d0>
  30656a:	66 0f 1f 44 00 00    	nopw   0x0(%rax,%rax,1)
  306570:	0f b6 c0             	movzbl %al,%eax
  306573:	48 b9 e8 d7 33 00 00 	movabs $0x33d7e8,%rcx
  30657a:	00 00 00 
  30657d:	ff 24 c1             	jmpq   *(%rcx,%rax,8)
  306580:	41 83 cb 20          	or     $0x20,%r11d
  306584:	41 b9 10 00 00 00    	mov    $0x10,%r9d
  30658a:	83 fe 4c             	cmp    $0x4c,%esi
  30658d:	74 77                	je     306606 <vsnprintf+0x236>
  30658f:	83 fe 6c             	cmp    $0x6c,%esi
  306592:	0f 84 42 06 00 00    	je     306bda <vsnprintf+0x80a>
  306598:	89 f0                	mov    %esi,%eax
  30659a:	83 e0 df             	and    $0xffffffdf,%eax
  30659d:	83 f8 5a             	cmp    $0x5a,%eax
  3065a0:	0f 84 b2 02 00 00    	je     306858 <vsnprintf+0x488>
  3065a6:	83 fe 74             	cmp    $0x74,%esi
  3065a9:	0f 84 a2 07 00 00    	je     306d51 <vsnprintf+0x981>
  3065af:	83 fe 48             	cmp    $0x48,%esi
  3065b2:	0f 84 4c 09 00 00    	je     306f04 <vsnprintf+0xb34>
  3065b8:	83 fe 68             	cmp    $0x68,%esi
  3065bb:	0f 84 e1 09 00 00    	je     306fa2 <vsnprintf+0xbd2>
  3065c1:	41 f6 c3 02          	test   $0x2,%r11b
  3065c5:	0f 84 db 07 00 00    	je     306da6 <vsnprintf+0x9d6>
  3065cb:	48 83 c7 01          	add    $0x1,%rdi
  3065cf:	41 8b 02             	mov    (%r10),%eax
  3065d2:	48 29 df             	sub    %rbx,%rdi
  3065d5:	48 63 ff             	movslq %edi,%rdi
  3065d8:	48 01 fb             	add    %rdi,%rbx
  3065db:	83 f8 30             	cmp    $0x30,%eax
  3065de:	0f 82 b5 0a 00 00    	jb     307099 <vsnprintf+0xcc9>
  3065e4:	49 8b 52 08          	mov    0x8(%r10),%rdx
  3065e8:	48 8d 42 08          	lea    0x8(%rdx),%rax
  3065ec:	49 89 42 08          	mov    %rax,0x8(%r10)
  3065f0:	48 63 12             	movslq (%rdx),%rdx
  3065f3:	41 bf 10 00 00 00    	mov    $0x10,%r15d
  3065f9:	eb 3d                	jmp    306638 <vsnprintf+0x268>
  3065fb:	83 fe 4c             	cmp    $0x4c,%esi
  3065fe:	41 b9 08 00 00 00    	mov    $0x8,%r9d
  306604:	75 89                	jne    30658f <vsnprintf+0x1bf>
  306606:	48 83 c7 01          	add    $0x1,%rdi
  30660a:	41 8b 02             	mov    (%r10),%eax
  30660d:	48 29 df             	sub    %rbx,%rdi
  306610:	48 63 ff             	movslq %edi,%rdi
  306613:	48 01 fb             	add    %rdi,%rbx
  306616:	83 f8 30             	cmp    $0x30,%eax
  306619:	0f 82 ff 06 00 00    	jb     306d1e <vsnprintf+0x94e>
  30661f:	49 8b 52 08          	mov    0x8(%r10),%rdx
  306623:	48 8d 42 08          	lea    0x8(%rdx),%rax
  306627:	49 89 42 08          	mov    %rax,0x8(%r10)
  30662b:	48 8b 12             	mov    (%rdx),%rdx
  30662e:	41 bf 08 00 00 00    	mov    $0x8,%r15d
  306634:	0f 1f 40 00          	nopl   0x0(%rax)
  306638:	8b 45 8c             	mov    -0x74(%rbp),%eax
  30663b:	4c 89 95 68 ff ff ff 	mov    %r10,-0x98(%rbp)
  306642:	44 89 d9             	mov    %r11d,%ecx
  306645:	44 89 9d 70 ff ff ff 	mov    %r11d,-0x90(%rbp)
  30664c:	4c 89 e7             	mov    %r12,%rdi
  30664f:	45 89 f0             	mov    %r14d,%r8d
  306652:	4c 89 ee             	mov    %r13,%rsi
  306655:	89 04 24             	mov    %eax,(%rsp)
  306658:	48 b8 40 4e 30 00 00 	movabs $0x304e40,%rax
  30665f:	00 00 00 
  306662:	ff d0                	callq  *%rax
  306664:	44 8b 9d 70 ff ff ff 	mov    -0x90(%rbp),%r11d
  30666b:	49 89 c4             	mov    %rax,%r12
  30666e:	4c 8b 95 68 ff ff ff 	mov    -0x98(%rbp),%r10
  306675:	0f b6 03             	movzbl (%rbx),%eax
  306678:	e9 a3 fd ff ff       	jmpq   306420 <vsnprintf+0x50>
  30667d:	0f 1f 00             	nopl   (%rax)
  306680:	0f b6 4a 01          	movzbl 0x1(%rdx),%ecx
  306684:	48 8d 7a 01          	lea    0x1(%rdx),%rdi
  306688:	0f be f0             	movsbl %al,%esi
  30668b:	38 c1                	cmp    %al,%cl
  30668d:	0f 84 4f 0b 00 00    	je     3071e2 <vsnprintf+0xe12>
  306693:	89 c8                	mov    %ecx,%eax
  306695:	83 e8 25             	sub    $0x25,%eax
  306698:	3c 53                	cmp    $0x53,%al
  30669a:	0f 86 d0 fe ff ff    	jbe    306570 <vsnprintf+0x1a0>
  3066a0:	48 29 df             	sub    %rbx,%rdi
  3066a3:	48 63 c7             	movslq %edi,%rax
  3066a6:	48 01 c3             	add    %rax,%rbx
  3066a9:	4d 39 ec             	cmp    %r13,%r12
  3066ac:	73 05                	jae    3066b3 <vsnprintf+0x2e3>
  3066ae:	41 c6 04 24 25       	movb   $0x25,(%r12)
  3066b3:	49 83 c4 01          	add    $0x1,%r12
  3066b7:	0f b6 03             	movzbl (%rbx),%eax
  3066ba:	41 bf 07 00 00 00    	mov    $0x7,%r15d
  3066c0:	e9 5b fd ff ff       	jmpq   306420 <vsnprintf+0x50>
  3066c5:	0f 1f 00             	nopl   (%rax)
  3066c8:	8b 7d 8c             	mov    -0x74(%rbp),%edi
  3066cb:	ba 00 00 00 00       	mov    $0x0,%edx
  3066d0:	85 ff                	test   %edi,%edi
  3066d2:	0f 49 d7             	cmovns %edi,%edx
  3066d5:	89 55 8c             	mov    %edx,-0x74(%rbp)
  3066d8:	48 89 da             	mov    %rbx,%rdx
  3066db:	e9 4b fe ff ff       	jmpq   30652b <vsnprintf+0x15b>
  3066e0:	48 39 cb             	cmp    %rcx,%rbx
  3066e3:	0f 85 7e fd ff ff    	jne    306467 <vsnprintf+0x97>
  3066e9:	48 89 de             	mov    %rbx,%rsi
  3066ec:	45 31 db             	xor    %r11d,%r11d
  3066ef:	49 b8 88 da 33 00 00 	movabs $0x33da88,%r8
  3066f6:	00 00 00 
  3066f9:	0f 1f 80 00 00 00 00 	nopl   0x0(%rax)
  306700:	0f be 46 01          	movsbl 0x1(%rsi),%eax
  306704:	48 8d 7e 01          	lea    0x1(%rsi),%rdi
  306708:	48 89 fa             	mov    %rdi,%rdx
  30670b:	8d 48 e0             	lea    -0x20(%rax),%ecx
  30670e:	80 f9 10             	cmp    $0x10,%cl
  306711:	77 5d                	ja     306770 <vsnprintf+0x3a0>
  306713:	0f b6 c9             	movzbl %cl,%ecx
  306716:	41 ff 24 c8          	jmpq   *(%r8,%rcx,8)
  30671a:	66 0f 1f 44 00 00    	nopw   0x0(%rax,%rax,1)
  306720:	41 83 cb 01          	or     $0x1,%r11d
  306724:	48 89 fe             	mov    %rdi,%rsi
  306727:	eb d7                	jmp    306700 <vsnprintf+0x330>
  306729:	0f 1f 80 00 00 00 00 	nopl   0x0(%rax)
  306730:	41 83 cb 10          	or     $0x10,%r11d
  306734:	eb ee                	jmp    306724 <vsnprintf+0x354>
  306736:	66 2e 0f 1f 84 00 00 	nopw   %cs:0x0(%rax,%rax,1)
  30673d:	00 00 00 
  306740:	41 83 cb 04          	or     $0x4,%r11d
  306744:	eb de                	jmp    306724 <vsnprintf+0x354>
  306746:	66 2e 0f 1f 84 00 00 	nopw   %cs:0x0(%rax,%rax,1)
  30674d:	00 00 00 
  306750:	41 83 cb 40          	or     $0x40,%r11d
  306754:	eb ce                	jmp    306724 <vsnprintf+0x354>
  306756:	66 2e 0f 1f 84 00 00 	nopw   %cs:0x0(%rax,%rax,1)
  30675d:	00 00 00 
  306760:	41 83 cb 08          	or     $0x8,%r11d
  306764:	eb be                	jmp    306724 <vsnprintf+0x354>
  306766:	66 2e 0f 1f 84 00 00 	nopw   %cs:0x0(%rax,%rax,1)
  30676d:	00 00 00 
  306770:	48 b9 20 b2 33 00 00 	movabs $0x33b220,%rcx
  306777:	00 00 00 
  30677a:	0f b6 f8             	movzbl %al,%edi
  30677d:	45 31 f6             	xor    %r14d,%r14d
  306780:	f6 04 39 04          	testb  $0x4,(%rcx,%rdi,1)
  306784:	75 4a                	jne    3067d0 <vsnprintf+0x400>
  306786:	3c 2a                	cmp    $0x2a,%al
  306788:	41 be ff ff ff ff    	mov    $0xffffffff,%r14d
  30678e:	0f 85 88 fd ff ff    	jne    30651c <vsnprintf+0x14c>
  306794:	48 83 c6 02          	add    $0x2,%rsi
  306798:	41 8b 12             	mov    (%r10),%edx
  30679b:	48 29 de             	sub    %rbx,%rsi
  30679e:	48 63 f6             	movslq %esi,%rsi
  3067a1:	48 01 f3             	add    %rsi,%rbx
  3067a4:	83 fa 30             	cmp    $0x30,%edx
  3067a7:	0f 83 dc 06 00 00    	jae    306e89 <vsnprintf+0xab9>
  3067ad:	89 d0                	mov    %edx,%eax
  3067af:	49 03 42 10          	add    0x10(%r10),%rax
  3067b3:	83 c2 08             	add    $0x8,%edx
  3067b6:	41 89 12             	mov    %edx,(%r10)
  3067b9:	44 8b 30             	mov    (%rax),%r14d
  3067bc:	41 bf 01 00 00 00    	mov    $0x1,%r15d
  3067c2:	0f b6 03             	movzbl (%rbx),%eax
  3067c5:	e9 56 fc ff ff       	jmpq   306420 <vsnprintf+0x50>
  3067ca:	66 0f 1f 44 00 00    	nopw   0x0(%rax,%rax,1)
  3067d0:	43 8d 34 b6          	lea    (%r14,%r14,4),%esi
  3067d4:	48 83 c2 01          	add    $0x1,%rdx
  3067d8:	44 8d 74 70 d0       	lea    -0x30(%rax,%rsi,2),%r14d
  3067dd:	0f be 02             	movsbl (%rdx),%eax
  3067e0:	0f b6 f0             	movzbl %al,%esi
  3067e3:	f6 04 31 04          	testb  $0x4,(%rcx,%rsi,1)
  3067e7:	75 e7                	jne    3067d0 <vsnprintf+0x400>
  3067e9:	e9 2e fd ff ff       	jmpq   30651c <vsnprintf+0x14c>
  3067ee:	66 90                	xchg   %ax,%ax
  3067f0:	0f be 42 01          	movsbl 0x1(%rdx),%eax
  3067f4:	48 b9 20 b2 33 00 00 	movabs $0x33b220,%rcx
  3067fb:	00 00 00 
  3067fe:	48 8d 72 01          	lea    0x1(%rdx),%rsi
  306802:	0f b6 f8             	movzbl %al,%edi
  306805:	f6 04 39 04          	testb  $0x4,(%rcx,%rdi,1)
  306809:	0f 84 61 03 00 00    	je     306b70 <vsnprintf+0x7a0>
  30680f:	31 d2                	xor    %edx,%edx
  306811:	0f 1f 80 00 00 00 00 	nopl   0x0(%rax)
  306818:	8d 14 92             	lea    (%rdx,%rdx,4),%edx
  30681b:	48 83 c6 01          	add    $0x1,%rsi
  30681f:	8d 54 50 d0          	lea    -0x30(%rax,%rdx,2),%edx
  306823:	0f be 06             	movsbl (%rsi),%eax
  306826:	0f b6 f8             	movzbl %al,%edi
  306829:	f6 04 39 04          	testb  $0x4,(%rcx,%rdi,1)
  30682d:	75 e9                	jne    306818 <vsnprintf+0x448>
  30682f:	31 ff                	xor    %edi,%edi
  306831:	85 d2                	test   %edx,%edx
  306833:	0f 48 d7             	cmovs  %edi,%edx
  306836:	89 55 8c             	mov    %edx,-0x74(%rbp)
  306839:	48 89 f2             	mov    %rsi,%rdx
  30683c:	e9 ea fc ff ff       	jmpq   30652b <vsnprintf+0x15b>
  306841:	0f 1f 80 00 00 00 00 	nopl   0x0(%rax)
  306848:	41 f7 de             	neg    %r14d
  30684b:	41 83 cb 10          	or     $0x10,%r11d
  30684f:	e9 c5 fc ff ff       	jmpq   306519 <vsnprintf+0x149>
  306854:	0f 1f 40 00          	nopl   0x0(%rax)
  306858:	48 83 c7 01          	add    $0x1,%rdi
  30685c:	41 8b 02             	mov    (%r10),%eax
  30685f:	48 29 df             	sub    %rbx,%rdi
  306862:	48 63 ff             	movslq %edi,%rdi
  306865:	48 01 fb             	add    %rdi,%rbx
  306868:	83 f8 30             	cmp    $0x30,%eax
  30686b:	0f 82 be 04 00 00    	jb     306d2f <vsnprintf+0x95f>
  306871:	49 8b 52 08          	mov    0x8(%r10),%rdx
  306875:	48 8d 42 08          	lea    0x8(%rdx),%rax
  306879:	49 89 42 08          	mov    %rax,0x8(%r10)
  30687d:	48 8b 12             	mov    (%rdx),%rdx
  306880:	41 bf 12 00 00 00    	mov    $0x12,%r15d
  306886:	e9 ad fd ff ff       	jmpq   306638 <vsnprintf+0x268>
  30688b:	4c 89 e0             	mov    %r12,%rax
  30688e:	4c 89 a5 78 ff ff ff 	mov    %r12,-0x88(%rbp)
  306895:	49 c7 c5 ff ff ff ff 	mov    $0xffffffffffffffff,%r13
  30689c:	48 f7 d0             	not    %rax
  30689f:	48 89 45 80          	mov    %rax,-0x80(%rbp)
  3068a3:	e9 65 fb ff ff       	jmpq   30640d <vsnprintf+0x3d>
  3068a8:	41 b9 0a 00 00 00    	mov    $0xa,%r9d
  3068ae:	e9 d7 fc ff ff       	jmpq   30658a <vsnprintf+0x1ba>
  3068b3:	48 83 c7 01          	add    $0x1,%rdi
  3068b7:	41 8b 12             	mov    (%r10),%edx
  3068ba:	48 29 df             	sub    %rbx,%rdi
  3068bd:	48 63 ff             	movslq %edi,%rdi
  3068c0:	48 01 fb             	add    %rdi,%rbx
  3068c3:	83 fa 30             	cmp    $0x30,%edx
  3068c6:	0f 82 ec 02 00 00    	jb     306bb8 <vsnprintf+0x7e8>
  3068cc:	49 8b 42 08          	mov    0x8(%r10),%rax
  3068d0:	48 8d 50 08          	lea    0x8(%rax),%rdx
  3068d4:	49 89 52 08          	mov    %rdx,0x8(%r10)
  3068d8:	4c 89 95 68 ff ff ff 	mov    %r10,-0x98(%rbp)
  3068df:	44 89 d9             	mov    %r11d,%ecx
  3068e2:	44 89 9d 70 ff ff ff 	mov    %r11d,-0x90(%rbp)
  3068e9:	48 8b 10             	mov    (%rax),%rdx
  3068ec:	4c 89 e7             	mov    %r12,%rdi
  3068ef:	44 8b 4d 8c          	mov    -0x74(%rbp),%r9d
  3068f3:	45 89 f0             	mov    %r14d,%r8d
  3068f6:	4c 89 ee             	mov    %r13,%rsi
  3068f9:	48 b8 30 52 30 00 00 	movabs $0x305230,%rax
  306900:	00 00 00 
  306903:	41 bf 04 00 00 00    	mov    $0x4,%r15d
  306909:	ff d0                	callq  *%rax
  30690b:	44 8b 9d 70 ff ff ff 	mov    -0x90(%rbp),%r11d
  306912:	49 89 c4             	mov    %rax,%r12
  306915:	4c 8b 95 68 ff ff ff 	mov    -0x98(%rbp),%r10
  30691c:	0f b6 03             	movzbl (%rbx),%eax
  30691f:	e9 fc fa ff ff       	jmpq   306420 <vsnprintf+0x50>
  306924:	41 8b 12             	mov    (%r10),%edx
  306927:	48 29 df             	sub    %rbx,%rdi
  30692a:	48 63 c7             	movslq %edi,%rax
  30692d:	48 01 c3             	add    %rax,%rbx
  306930:	83 fa 30             	cmp    $0x30,%edx
  306933:	0f 82 6e 02 00 00    	jb     306ba7 <vsnprintf+0x7d7>
  306939:	49 8b 42 08          	mov    0x8(%r10),%rax
  30693d:	48 8d 50 08          	lea    0x8(%rax),%rdx
  306941:	49 89 52 08          	mov    %rdx,0x8(%r10)
  306945:	4c 8b 38             	mov    (%rax),%r15
  306948:	4d 85 ff             	test   %r15,%r15
  30694b:	0f 84 09 08 00 00    	je     30715a <vsnprintf+0xd8a>
  306951:	44 0f b6 43 01       	movzbl 0x1(%rbx),%r8d
  306956:	41 8d 48 b7          	lea    -0x49(%r8),%ecx
  30695a:	80 f9 2a             	cmp    $0x2a,%cl
  30695d:	77 41                	ja     3069a0 <vsnprintf+0x5d0>
  30695f:	b8 01 00 00 00       	mov    $0x1,%eax
  306964:	48 ba 01 00 00 00 01 	movabs $0x100000001,%rdx
  30696b:	00 00 00 
  30696e:	48 d3 e0             	shl    %cl,%rax
  306971:	48 85 d0             	test   %rdx,%rax
  306974:	0f 85 fe 02 00 00    	jne    306c78 <vsnprintf+0x8a8>
  30697a:	48 ba 10 00 00 00 10 	movabs $0x1000000010,%rdx
  306981:	00 00 00 
  306984:	48 85 d0             	test   %rdx,%rax
  306987:	0f 85 ac 06 00 00    	jne    307039 <vsnprintf+0xc69>
  30698d:	48 ba 00 04 00 00 00 	movabs $0x40000000400,%rdx
  306994:	04 00 00 
  306997:	48 85 d0             	test   %rdx,%rax
  30699a:	0f 85 69 07 00 00    	jne    307109 <vsnprintf+0xd39>
  3069a0:	41 83 fe ff          	cmp    $0xffffffff,%r14d
  3069a4:	44 89 d9             	mov    %r11d,%ecx
  3069a7:	0f 84 63 03 00 00    	je     306d10 <vsnprintf+0x940>
  3069ad:	83 c9 20             	or     $0x20,%ecx
  3069b0:	45 89 f0             	mov    %r14d,%r8d
  3069b3:	8b 45 8c             	mov    -0x74(%rbp),%eax
  3069b6:	4c 89 95 68 ff ff ff 	mov    %r10,-0x98(%rbp)
  3069bd:	4c 89 e7             	mov    %r12,%rdi
  3069c0:	44 89 9d 70 ff ff ff 	mov    %r11d,-0x90(%rbp)
  3069c7:	41 b9 10 00 00 00    	mov    $0x10,%r9d
  3069cd:	4c 89 fa             	mov    %r15,%rdx
  3069d0:	4c 89 ee             	mov    %r13,%rsi
  3069d3:	89 04 24             	mov    %eax,(%rsp)
  3069d6:	48 b8 40 4e 30 00 00 	movabs $0x304e40,%rax
  3069dd:	00 00 00 
  3069e0:	ff d0                	callq  *%rax
  3069e2:	4c 8b 95 68 ff ff ff 	mov    -0x98(%rbp),%r10
  3069e9:	44 8b 9d 70 ff ff ff 	mov    -0x90(%rbp),%r11d
  3069f0:	49 89 c4             	mov    %rax,%r12
  3069f3:	0f b6 03             	movzbl (%rbx),%eax
  3069f6:	48 b9 20 b2 33 00 00 	movabs $0x33b220,%rcx
  3069fd:	00 00 00 
  306a00:	0f b6 d0             	movzbl %al,%edx
  306a03:	f6 04 11 07          	testb  $0x7,(%rcx,%rdx,1)
  306a07:	74 17                	je     306a20 <vsnprintf+0x650>
  306a09:	0f 1f 80 00 00 00 00 	nopl   0x0(%rax)
  306a10:	48 83 c3 01          	add    $0x1,%rbx
  306a14:	0f b6 03             	movzbl (%rbx),%eax
  306a17:	0f b6 d0             	movzbl %al,%edx
  306a1a:	f6 04 11 07          	testb  $0x7,(%rcx,%rdx,1)
  306a1e:	75 f0                	jne    306a10 <vsnprintf+0x640>
  306a20:	41 bf 05 00 00 00    	mov    $0x5,%r15d
  306a26:	e9 f5 f9 ff ff       	jmpq   306420 <vsnprintf+0x50>
  306a2b:	48 83 c7 01          	add    $0x1,%rdi
  306a2f:	48 29 df             	sub    %rbx,%rdi
  306a32:	48 63 ff             	movslq %edi,%rdi
  306a35:	48 01 fb             	add    %rdi,%rbx
  306a38:	83 fe 6c             	cmp    $0x6c,%esi
  306a3b:	0f 84 49 01 00 00    	je     306b8a <vsnprintf+0x7ba>
  306a41:	83 e6 df             	and    $0xffffffdf,%esi
  306a44:	41 8b 12             	mov    (%r10),%edx
  306a47:	83 fe 5a             	cmp    $0x5a,%esi
  306a4a:	0f 85 c3 01 00 00    	jne    306c13 <vsnprintf+0x843>
  306a50:	83 fa 30             	cmp    $0x30,%edx
  306a53:	0f 83 3d 01 00 00    	jae    306b96 <vsnprintf+0x7c6>
  306a59:	89 d0                	mov    %edx,%eax
  306a5b:	49 03 42 10          	add    0x10(%r10),%rax
  306a5f:	83 c2 08             	add    $0x8,%edx
  306a62:	41 89 12             	mov    %edx,(%r10)
  306a65:	4c 89 e2             	mov    %r12,%rdx
  306a68:	48 2b 95 78 ff ff ff 	sub    -0x88(%rbp),%rdx
  306a6f:	48 8b 00             	mov    (%rax),%rax
  306a72:	41 bf 11 00 00 00    	mov    $0x11,%r15d
  306a78:	48 89 10             	mov    %rdx,(%rax)
  306a7b:	0f b6 03             	movzbl (%rbx),%eax
  306a7e:	e9 9d f9 ff ff       	jmpq   306420 <vsnprintf+0x50>
  306a83:	41 83 cb 02          	or     $0x2,%r11d
  306a87:	41 b9 0a 00 00 00    	mov    $0xa,%r9d
  306a8d:	e9 f8 fa ff ff       	jmpq   30658a <vsnprintf+0x1ba>
  306a92:	48 83 c7 01          	add    $0x1,%rdi
  306a96:	48 29 df             	sub    %rbx,%rdi
  306a99:	48 63 ff             	movslq %edi,%rdi
  306a9c:	48 01 fb             	add    %rdi,%rbx
  306a9f:	41 f6 c3 10          	test   $0x10,%r11b
  306aa3:	75 34                	jne    306ad9 <vsnprintf+0x709>
  306aa5:	41 8d 46 ff          	lea    -0x1(%r14),%eax
  306aa9:	85 c0                	test   %eax,%eax
  306aab:	0f 8e 80 05 00 00    	jle    307031 <vsnprintf+0xc61>
  306ab1:	41 83 ee 02          	sub    $0x2,%r14d
  306ab5:	44 89 f0             	mov    %r14d,%eax
  306ab8:	49 8d 54 04 01       	lea    0x1(%r12,%rax,1),%rdx
  306abd:	4c 89 e0             	mov    %r12,%rax
  306ac0:	49 39 c5             	cmp    %rax,%r13
  306ac3:	76 03                	jbe    306ac8 <vsnprintf+0x6f8>
  306ac5:	c6 00 20             	movb   $0x20,(%rax)
  306ac8:	48 83 c0 01          	add    $0x1,%rax
  306acc:	48 39 d0             	cmp    %rdx,%rax
  306acf:	75 ef                	jne    306ac0 <vsnprintf+0x6f0>
  306ad1:	4f 8d 64 34 01       	lea    0x1(%r12,%r14,1),%r12
  306ad6:	45 31 f6             	xor    %r14d,%r14d
  306ad9:	41 8b 02             	mov    (%r10),%eax
  306adc:	83 f8 30             	cmp    $0x30,%eax
  306adf:	0f 83 e4 00 00 00    	jae    306bc9 <vsnprintf+0x7f9>
  306ae5:	89 c2                	mov    %eax,%edx
  306ae7:	49 03 52 10          	add    0x10(%r10),%rdx
  306aeb:	83 c0 08             	add    $0x8,%eax
  306aee:	41 89 02             	mov    %eax,(%r10)
  306af1:	4d 39 ec             	cmp    %r13,%r12
  306af4:	8b 02                	mov    (%rdx),%eax
  306af6:	73 04                	jae    306afc <vsnprintf+0x72c>
  306af8:	41 88 04 24          	mov    %al,(%r12)
  306afc:	41 8d 56 ff          	lea    -0x1(%r14),%edx
  306b00:	49 8d 4c 24 01       	lea    0x1(%r12),%rcx
  306b05:	85 d2                	test   %edx,%edx
  306b07:	0f 8e 81 04 00 00    	jle    306f8e <vsnprintf+0xbbe>
  306b0d:	41 83 ee 02          	sub    $0x2,%r14d
  306b11:	44 89 f0             	mov    %r14d,%eax
  306b14:	49 8d 54 04 02       	lea    0x2(%r12,%rax,1),%rdx
  306b19:	48 89 c8             	mov    %rcx,%rax
  306b1c:	0f 1f 40 00          	nopl   0x0(%rax)
  306b20:	49 39 c5             	cmp    %rax,%r13
  306b23:	76 03                	jbe    306b28 <vsnprintf+0x758>
  306b25:	c6 00 20             	movb   $0x20,(%rax)
  306b28:	48 83 c0 01          	add    $0x1,%rax
  306b2c:	48 39 d0             	cmp    %rdx,%rax
  306b2f:	75 ef                	jne    306b20 <vsnprintf+0x750>
  306b31:	4e 8d 64 31 01       	lea    0x1(%rcx,%r14,1),%r12
  306b36:	0f b6 03             	movzbl (%rbx),%eax
  306b39:	41 bf 03 00 00 00    	mov    $0x3,%r15d
  306b3f:	45 31 f6             	xor    %r14d,%r14d
  306b42:	e9 d9 f8 ff ff       	jmpq   306420 <vsnprintf+0x50>
  306b47:	48 83 c7 01          	add    $0x1,%rdi
  306b4b:	48 29 df             	sub    %rbx,%rdi
  306b4e:	48 63 ff             	movslq %edi,%rdi
  306b51:	48 01 fb             	add    %rdi,%rbx
  306b54:	4d 39 ec             	cmp    %r13,%r12
  306b57:	73 05                	jae    306b5e <vsnprintf+0x78e>
  306b59:	41 c6 04 24 25       	movb   $0x25,(%r12)
  306b5e:	49 83 c4 01          	add    $0x1,%r12
  306b62:	0f b6 03             	movzbl (%rbx),%eax
  306b65:	41 bf 06 00 00 00    	mov    $0x6,%r15d
  306b6b:	e9 b0 f8 ff ff       	jmpq   306420 <vsnprintf+0x50>
  306b70:	3c 2a                	cmp    $0x2a,%al
  306b72:	0f 84 d4 03 00 00    	je     306f4c <vsnprintf+0xb7c>
  306b78:	48 89 f2             	mov    %rsi,%rdx
  306b7b:	e9 ab f9 ff ff       	jmpq   30652b <vsnprintf+0x15b>
  306b80:	41 c6 45 ff 00       	movb   $0x0,-0x1(%r13)
  306b85:	e9 6b f9 ff ff       	jmpq   3064f5 <vsnprintf+0x125>
  306b8a:	41 8b 12             	mov    (%r10),%edx
  306b8d:	83 fa 30             	cmp    $0x30,%edx
  306b90:	0f 82 c3 fe ff ff    	jb     306a59 <vsnprintf+0x689>
  306b96:	49 8b 42 08          	mov    0x8(%r10),%rax
  306b9a:	48 8d 50 08          	lea    0x8(%rax),%rdx
  306b9e:	49 89 52 08          	mov    %rdx,0x8(%r10)
  306ba2:	e9 be fe ff ff       	jmpq   306a65 <vsnprintf+0x695>
  306ba7:	89 d0                	mov    %edx,%eax
  306ba9:	83 c2 08             	add    $0x8,%edx
  306bac:	49 03 42 10          	add    0x10(%r10),%rax
  306bb0:	41 89 12             	mov    %edx,(%r10)
  306bb3:	e9 8d fd ff ff       	jmpq   306945 <vsnprintf+0x575>
  306bb8:	89 d0                	mov    %edx,%eax
  306bba:	83 c2 08             	add    $0x8,%edx
  306bbd:	49 03 42 10          	add    0x10(%r10),%rax
  306bc1:	41 89 12             	mov    %edx,(%r10)
  306bc4:	e9 0f fd ff ff       	jmpq   3068d8 <vsnprintf+0x508>
  306bc9:	49 8b 52 08          	mov    0x8(%r10),%rdx
  306bcd:	48 8d 42 08          	lea    0x8(%rdx),%rax
  306bd1:	49 89 42 08          	mov    %rax,0x8(%r10)
  306bd5:	e9 17 ff ff ff       	jmpq   306af1 <vsnprintf+0x721>
  306bda:	41 f6 c3 02          	test   $0x2,%r11b
  306bde:	74 65                	je     306c45 <vsnprintf+0x875>
  306be0:	48 83 c7 01          	add    $0x1,%rdi
  306be4:	41 8b 02             	mov    (%r10),%eax
  306be7:	48 29 df             	sub    %rbx,%rdi
  306bea:	48 63 ff             	movslq %edi,%rdi
  306bed:	48 01 fb             	add    %rdi,%rbx
  306bf0:	83 f8 30             	cmp    $0x30,%eax
  306bf3:	0f 82 8b 01 00 00    	jb     306d84 <vsnprintf+0x9b4>
  306bf9:	49 8b 52 08          	mov    0x8(%r10),%rdx
  306bfd:	48 8d 42 08          	lea    0x8(%rdx),%rax
  306c01:	49 89 42 08          	mov    %rax,0x8(%r10)
  306c05:	48 8b 12             	mov    (%rdx),%rdx
  306c08:	41 bf 0a 00 00 00    	mov    $0xa,%r15d
  306c0e:	e9 25 fa ff ff       	jmpq   306638 <vsnprintf+0x268>
  306c13:	83 fa 30             	cmp    $0x30,%edx
  306c16:	0f 82 24 01 00 00    	jb     306d40 <vsnprintf+0x970>
  306c1c:	49 8b 42 08          	mov    0x8(%r10),%rax
  306c20:	48 8d 50 08          	lea    0x8(%rax),%rdx
  306c24:	49 89 52 08          	mov    %rdx,0x8(%r10)
  306c28:	4c 89 e2             	mov    %r12,%rdx
  306c2b:	48 2b 95 78 ff ff ff 	sub    -0x88(%rbp),%rdx
  306c32:	48 8b 00             	mov    (%rax),%rax
  306c35:	41 bf 11 00 00 00    	mov    $0x11,%r15d
  306c3b:	89 10                	mov    %edx,(%rax)
  306c3d:	0f b6 03             	movzbl (%rbx),%eax
  306c40:	e9 db f7 ff ff       	jmpq   306420 <vsnprintf+0x50>
  306c45:	48 83 c7 01          	add    $0x1,%rdi
  306c49:	41 8b 02             	mov    (%r10),%eax
  306c4c:	48 29 df             	sub    %rbx,%rdi
  306c4f:	48 63 ff             	movslq %edi,%rdi
  306c52:	48 01 fb             	add    %rdi,%rbx
  306c55:	83 f8 30             	cmp    $0x30,%eax
  306c58:	0f 82 37 01 00 00    	jb     306d95 <vsnprintf+0x9c5>
  306c5e:	49 8b 52 08          	mov    0x8(%r10),%rdx
  306c62:	48 8d 42 08          	lea    0x8(%rdx),%rax
  306c66:	49 89 42 08          	mov    %rax,0x8(%r10)
  306c6a:	48 8b 12             	mov    (%rdx),%rdx
  306c6d:	41 bf 09 00 00 00    	mov    $0x9,%r15d
  306c73:	e9 c0 f9 ff ff       	jmpq   306638 <vsnprintf+0x268>
  306c78:	0f b6 43 02          	movzbl 0x2(%rbx),%eax
  306c7c:	3c 34                	cmp    $0x34,%al
  306c7e:	0f 84 54 01 00 00    	je     306dd8 <vsnprintf+0xa08>
  306c84:	3c 36                	cmp    $0x36,%al
  306c86:	0f 85 14 fd ff ff    	jne    3069a0 <vsnprintf+0x5d0>
  306c8c:	31 c9                	xor    %ecx,%ecx
  306c8e:	48 8d 45 a0          	lea    -0x60(%rbp),%rax
  306c92:	48 ba 20 db 33 00 00 	movabs $0x33db20,%rdx
  306c99:	00 00 00 
  306c9c:	eb 11                	jmp    306caf <vsnprintf+0x8df>
  306c9e:	66 90                	xchg   %ax,%ax
  306ca0:	83 c1 01             	add    $0x1,%ecx
  306ca3:	83 f9 08             	cmp    $0x8,%ecx
  306ca6:	0f 84 11 02 00 00    	je     306ebd <vsnprintf+0xaed>
  306cac:	48 89 f0             	mov    %rsi,%rax
  306caf:	41 0f b6 37          	movzbl (%r15),%esi
  306cb3:	49 83 c7 02          	add    $0x2,%r15
  306cb7:	89 f7                	mov    %esi,%edi
  306cb9:	83 e6 0f             	and    $0xf,%esi
  306cbc:	40 c0 ef 04          	shr    $0x4,%dil
  306cc0:	0f b6 34 32          	movzbl (%rdx,%rsi,1),%esi
  306cc4:	83 e7 0f             	and    $0xf,%edi
  306cc7:	0f b6 3c 3a          	movzbl (%rdx,%rdi,1),%edi
  306ccb:	40 88 70 01          	mov    %sil,0x1(%rax)
  306ccf:	40 88 38             	mov    %dil,(%rax)
  306cd2:	41 0f b6 77 ff       	movzbl -0x1(%r15),%esi
  306cd7:	89 f7                	mov    %esi,%edi
  306cd9:	83 e6 0f             	and    $0xf,%esi
  306cdc:	40 c0 ef 04          	shr    $0x4,%dil
  306ce0:	0f b6 34 32          	movzbl (%rdx,%rsi,1),%esi
  306ce4:	83 e7 0f             	and    $0xf,%edi
  306ce7:	41 80 f8 49          	cmp    $0x49,%r8b
  306ceb:	0f b6 3c 3a          	movzbl (%rdx,%rdi,1),%edi
  306cef:	40 88 70 03          	mov    %sil,0x3(%rax)
  306cf3:	48 8d 70 04          	lea    0x4(%rax),%rsi
  306cf7:	40 88 78 02          	mov    %dil,0x2(%rax)
  306cfb:	75 a3                	jne    306ca0 <vsnprintf+0x8d0>
  306cfd:	83 f9 07             	cmp    $0x7,%ecx
  306d00:	0f 84 b7 01 00 00    	je     306ebd <vsnprintf+0xaed>
  306d06:	48 8d 70 05          	lea    0x5(%rax),%rsi
  306d0a:	c6 40 04 3a          	movb   $0x3a,0x4(%rax)
  306d0e:	eb 90                	jmp    306ca0 <vsnprintf+0x8d0>
  306d10:	83 c9 21             	or     $0x21,%ecx
  306d13:	41 b8 10 00 00 00    	mov    $0x10,%r8d
  306d19:	e9 95 fc ff ff       	jmpq   3069b3 <vsnprintf+0x5e3>
  306d1e:	89 c2                	mov    %eax,%edx
  306d20:	83 c0 08             	add    $0x8,%eax
  306d23:	49 03 52 10          	add    0x10(%r10),%rdx
  306d27:	41 89 02             	mov    %eax,(%r10)
  306d2a:	e9 fc f8 ff ff       	jmpq   30662b <vsnprintf+0x25b>
  306d2f:	89 c2                	mov    %eax,%edx
  306d31:	83 c0 08             	add    $0x8,%eax
  306d34:	49 03 52 10          	add    0x10(%r10),%rdx
  306d38:	41 89 02             	mov    %eax,(%r10)
  306d3b:	e9 3d fb ff ff       	jmpq   30687d <vsnprintf+0x4ad>
  306d40:	89 d0                	mov    %edx,%eax
  306d42:	83 c2 08             	add    $0x8,%edx
  306d45:	49 03 42 10          	add    0x10(%r10),%rax
  306d49:	41 89 12             	mov    %edx,(%r10)
  306d4c:	e9 d7 fe ff ff       	jmpq   306c28 <vsnprintf+0x858>
  306d51:	48 83 c7 01          	add    $0x1,%rdi
  306d55:	41 8b 02             	mov    (%r10),%eax
  306d58:	48 29 df             	sub    %rbx,%rdi
  306d5b:	48 63 ff             	movslq %edi,%rdi
  306d5e:	48 01 fb             	add    %rdi,%rbx
  306d61:	83 f8 30             	cmp    $0x30,%eax
  306d64:	0f 82 8e 03 00 00    	jb     3070f8 <vsnprintf+0xd28>
  306d6a:	49 8b 52 08          	mov    0x8(%r10),%rdx
  306d6e:	48 8d 42 08          	lea    0x8(%rdx),%rax
  306d72:	49 89 42 08          	mov    %rax,0x8(%r10)
  306d76:	48 8b 12             	mov    (%rdx),%rdx
  306d79:	41 bf 13 00 00 00    	mov    $0x13,%r15d
  306d7f:	e9 b4 f8 ff ff       	jmpq   306638 <vsnprintf+0x268>
  306d84:	89 c2                	mov    %eax,%edx
  306d86:	83 c0 08             	add    $0x8,%eax
  306d89:	49 03 52 10          	add    0x10(%r10),%rdx
  306d8d:	41 89 02             	mov    %eax,(%r10)
  306d90:	e9 70 fe ff ff       	jmpq   306c05 <vsnprintf+0x835>
  306d95:	89 c2                	mov    %eax,%edx
  306d97:	83 c0 08             	add    $0x8,%eax
  306d9a:	49 03 52 10          	add    0x10(%r10),%rdx
  306d9e:	41 89 02             	mov    %eax,(%r10)
  306da1:	e9 c4 fe ff ff       	jmpq   306c6a <vsnprintf+0x89a>
  306da6:	48 83 c7 01          	add    $0x1,%rdi
  306daa:	41 8b 02             	mov    (%r10),%eax
  306dad:	48 29 df             	sub    %rbx,%rdi
  306db0:	48 63 ff             	movslq %edi,%rdi
  306db3:	48 01 fb             	add    %rdi,%rbx
  306db6:	83 f8 30             	cmp    $0x30,%eax
  306db9:	0f 82 28 03 00 00    	jb     3070e7 <vsnprintf+0xd17>
  306dbf:	49 8b 52 08          	mov    0x8(%r10),%rdx
  306dc3:	48 8d 42 08          	lea    0x8(%rdx),%rax
  306dc7:	49 89 42 08          	mov    %rax,0x8(%r10)
  306dcb:	8b 12                	mov    (%rdx),%edx
  306dcd:	41 bf 0f 00 00 00    	mov    $0xf,%r15d
  306dd3:	e9 60 f8 ff ff       	jmpq   306638 <vsnprintf+0x268>
  306dd8:	48 8d 4d a0          	lea    -0x60(%rbp),%rcx
  306ddc:	45 31 c9             	xor    %r9d,%r9d
  306ddf:	4c 89 ad 70 ff ff ff 	mov    %r13,-0x90(%rbp)
  306de6:	4c 89 a5 60 ff ff ff 	mov    %r12,-0xa0(%rbp)
  306ded:	48 89 9d 58 ff ff ff 	mov    %rbx,-0xa8(%rbp)
  306df4:	45 89 c5             	mov    %r8d,%r13d
  306df7:	44 89 9d 68 ff ff ff 	mov    %r11d,-0x98(%rbp)
  306dfe:	49 89 cc             	mov    %rcx,%r12
  306e01:	4c 89 cb             	mov    %r9,%rbx
  306e04:	4c 89 95 50 ff ff ff 	mov    %r10,-0xb0(%rbp)
  306e0b:	41 0f b6 34 1f       	movzbl (%r15,%rbx,1),%esi
  306e10:	48 8d 7d 90          	lea    -0x70(%rbp),%rdi
  306e14:	48 b8 40 4c 30 00 00 	movabs $0x304c40,%rax
  306e1b:	00 00 00 
  306e1e:	ff d0                	callq  *%rax
  306e20:	48 8d 7d 90          	lea    -0x70(%rbp),%rdi
  306e24:	48 29 f8             	sub    %rdi,%rax
  306e27:	41 80 fd 69          	cmp    $0x69,%r13b
  306e2b:	75 1e                	jne    306e4b <vsnprintf+0xa7b>
  306e2d:	83 f8 02             	cmp    $0x2,%eax
  306e30:	0f 8f b4 01 00 00    	jg     306fea <vsnprintf+0xc1a>
  306e36:	41 c6 04 24 30       	movb   $0x30,(%r12)
  306e3b:	0f 84 40 03 00 00    	je     307181 <vsnprintf+0xdb1>
  306e41:	41 c6 44 24 01 30    	movb   $0x30,0x1(%r12)
  306e47:	49 83 c4 02          	add    $0x2,%r12
  306e4b:	8d 78 ff             	lea    -0x1(%rax),%edi
  306e4e:	85 c0                	test   %eax,%eax
  306e50:	4c 89 e6             	mov    %r12,%rsi
  306e53:	89 fa                	mov    %edi,%edx
  306e55:	74 1f                	je     306e76 <vsnprintf+0xaa6>
  306e57:	4c 89 e0             	mov    %r12,%rax
  306e5a:	48 63 ca             	movslq %edx,%rcx
  306e5d:	83 ea 01             	sub    $0x1,%edx
  306e60:	48 83 c0 01          	add    $0x1,%rax
  306e64:	0f b6 4c 0d 90       	movzbl -0x70(%rbp,%rcx,1),%ecx
  306e69:	88 48 ff             	mov    %cl,-0x1(%rax)
  306e6c:	83 fa ff             	cmp    $0xffffffff,%edx
  306e6f:	75 e9                	jne    306e5a <vsnprintf+0xa8a>
  306e71:	49 8d 74 3c 01       	lea    0x1(%r12,%rdi,1),%rsi
  306e76:	48 83 fb 03          	cmp    $0x3,%rbx
  306e7a:	74 1e                	je     306e9a <vsnprintf+0xaca>
  306e7c:	4c 8d 66 01          	lea    0x1(%rsi),%r12
  306e80:	c6 06 2e             	movb   $0x2e,(%rsi)
  306e83:	48 83 c3 01          	add    $0x1,%rbx
  306e87:	eb 82                	jmp    306e0b <vsnprintf+0xa3b>
  306e89:	49 8b 42 08          	mov    0x8(%r10),%rax
  306e8d:	48 8d 50 08          	lea    0x8(%rax),%rdx
  306e91:	49 89 52 08          	mov    %rdx,0x8(%r10)
  306e95:	e9 1f f9 ff ff       	jmpq   3067b9 <vsnprintf+0x3e9>
  306e9a:	4c 8b ad 70 ff ff ff 	mov    -0x90(%rbp),%r13
  306ea1:	44 8b 9d 68 ff ff ff 	mov    -0x98(%rbp),%r11d
  306ea8:	4c 8b a5 60 ff ff ff 	mov    -0xa0(%rbp),%r12
  306eaf:	48 8b 9d 58 ff ff ff 	mov    -0xa8(%rbp),%rbx
  306eb6:	4c 8b 95 50 ff ff ff 	mov    -0xb0(%rbp),%r10
  306ebd:	4c 89 95 68 ff ff ff 	mov    %r10,-0x98(%rbp)
  306ec4:	c6 06 00             	movb   $0x0,(%rsi)
  306ec7:	48 8d 55 a0          	lea    -0x60(%rbp),%rdx
  306ecb:	44 8b 4d 8c          	mov    -0x74(%rbp),%r9d
  306ecf:	45 89 f0             	mov    %r14d,%r8d
  306ed2:	44 89 d9             	mov    %r11d,%ecx
  306ed5:	44 89 9d 70 ff ff ff 	mov    %r11d,-0x90(%rbp)
  306edc:	4c 89 e7             	mov    %r12,%rdi
  306edf:	4c 89 ee             	mov    %r13,%rsi
  306ee2:	48 b8 30 52 30 00 00 	movabs $0x305230,%rax
  306ee9:	00 00 00 
  306eec:	ff d0                	callq  *%rax
  306eee:	44 8b 9d 70 ff ff ff 	mov    -0x90(%rbp),%r11d
  306ef5:	49 89 c4             	mov    %rax,%r12
  306ef8:	4c 8b 95 68 ff ff ff 	mov    -0x98(%rbp),%r10
  306eff:	e9 ef fa ff ff       	jmpq   3069f3 <vsnprintf+0x623>
  306f04:	41 f6 c3 02          	test   $0x2,%r11b
  306f08:	0f 84 e6 00 00 00    	je     306ff4 <vsnprintf+0xc24>
  306f0e:	48 83 c7 01          	add    $0x1,%rdi
  306f12:	41 8b 12             	mov    (%r10),%edx
  306f15:	48 29 df             	sub    %rbx,%rdi
  306f18:	48 63 ff             	movslq %edi,%rdi
  306f1b:	48 01 fb             	add    %rdi,%rbx
  306f1e:	83 fa 30             	cmp    $0x30,%edx
  306f21:	73 1b                	jae    306f3e <vsnprintf+0xb6e>
  306f23:	89 d0                	mov    %edx,%eax
  306f25:	49 03 42 10          	add    0x10(%r10),%rax
  306f29:	83 c2 08             	add    $0x8,%edx
  306f2c:	41 89 12             	mov    %edx,(%r10)
  306f2f:	48 0f be 10          	movsbq (%rax),%rdx
  306f33:	41 bf 0c 00 00 00    	mov    $0xc,%r15d
  306f39:	e9 fa f6 ff ff       	jmpq   306638 <vsnprintf+0x268>
  306f3e:	49 8b 42 08          	mov    0x8(%r10),%rax
  306f42:	48 8d 50 08          	lea    0x8(%rax),%rdx
  306f46:	49 89 52 08          	mov    %rdx,0x8(%r10)
  306f4a:	eb e3                	jmp    306f2f <vsnprintf+0xb5f>
  306f4c:	48 83 c2 02          	add    $0x2,%rdx
  306f50:	48 29 da             	sub    %rbx,%rdx
  306f53:	48 63 d2             	movslq %edx,%rdx
  306f56:	48 01 d3             	add    %rdx,%rbx
  306f59:	41 8b 12             	mov    (%r10),%edx
  306f5c:	83 fa 30             	cmp    $0x30,%edx
  306f5f:	72 1f                	jb     306f80 <vsnprintf+0xbb0>
  306f61:	49 8b 42 08          	mov    0x8(%r10),%rax
  306f65:	48 8d 50 08          	lea    0x8(%rax),%rdx
  306f69:	49 89 52 08          	mov    %rdx,0x8(%r10)
  306f6d:	8b 00                	mov    (%rax),%eax
  306f6f:	41 bf 02 00 00 00    	mov    $0x2,%r15d
  306f75:	89 45 8c             	mov    %eax,-0x74(%rbp)
  306f78:	0f b6 03             	movzbl (%rbx),%eax
  306f7b:	e9 a0 f4 ff ff       	jmpq   306420 <vsnprintf+0x50>
  306f80:	89 d0                	mov    %edx,%eax
  306f82:	83 c2 08             	add    $0x8,%edx
  306f85:	49 03 42 10          	add    0x10(%r10),%rax
  306f89:	41 89 12             	mov    %edx,(%r10)
  306f8c:	eb df                	jmp    306f6d <vsnprintf+0xb9d>
  306f8e:	0f b6 03             	movzbl (%rbx),%eax
  306f91:	41 89 d6             	mov    %edx,%r14d
  306f94:	49 89 cc             	mov    %rcx,%r12
  306f97:	41 bf 03 00 00 00    	mov    $0x3,%r15d
  306f9d:	e9 7e f4 ff ff       	jmpq   306420 <vsnprintf+0x50>
  306fa2:	41 f6 c3 02          	test   $0x2,%r11b
  306fa6:	0f 84 fe 00 00 00    	je     3070aa <vsnprintf+0xcda>
  306fac:	48 83 c7 01          	add    $0x1,%rdi
  306fb0:	41 8b 12             	mov    (%r10),%edx
  306fb3:	48 29 df             	sub    %rbx,%rdi
  306fb6:	48 63 ff             	movslq %edi,%rdi
  306fb9:	48 01 fb             	add    %rdi,%rbx
  306fbc:	83 fa 30             	cmp    $0x30,%edx
  306fbf:	73 1b                	jae    306fdc <vsnprintf+0xc0c>
  306fc1:	89 d0                	mov    %edx,%eax
  306fc3:	49 03 42 10          	add    0x10(%r10),%rax
  306fc7:	83 c2 08             	add    $0x8,%edx
  306fca:	41 89 12             	mov    %edx,(%r10)
  306fcd:	48 0f bf 10          	movswq (%rax),%rdx
  306fd1:	41 bf 0e 00 00 00    	mov    $0xe,%r15d
  306fd7:	e9 5c f6 ff ff       	jmpq   306638 <vsnprintf+0x268>
  306fdc:	49 8b 42 08          	mov    0x8(%r10),%rax
  306fe0:	48 8d 50 08          	lea    0x8(%rax),%rdx
  306fe4:	49 89 52 08          	mov    %rdx,0x8(%r10)
  306fe8:	eb e3                	jmp    306fcd <vsnprintf+0xbfd>
  306fea:	8d 78 ff             	lea    -0x1(%rax),%edi
  306fed:	89 fa                	mov    %edi,%edx
  306fef:	e9 63 fe ff ff       	jmpq   306e57 <vsnprintf+0xa87>
  306ff4:	48 83 c7 01          	add    $0x1,%rdi
  306ff8:	41 8b 12             	mov    (%r10),%edx
  306ffb:	48 29 df             	sub    %rbx,%rdi
  306ffe:	48 63 ff             	movslq %edi,%rdi
  307001:	48 01 fb             	add    %rdi,%rbx
  307004:	83 fa 30             	cmp    $0x30,%edx
  307007:	73 1a                	jae    307023 <vsnprintf+0xc53>
  307009:	89 d0                	mov    %edx,%eax
  30700b:	49 03 42 10          	add    0x10(%r10),%rax
  30700f:	83 c2 08             	add    $0x8,%edx
  307012:	41 89 12             	mov    %edx,(%r10)
  307015:	0f b6 10             	movzbl (%rax),%edx
  307018:	41 bf 0b 00 00 00    	mov    $0xb,%r15d
  30701e:	e9 15 f6 ff ff       	jmpq   306638 <vsnprintf+0x268>
  307023:	49 8b 42 08          	mov    0x8(%r10),%rax
  307027:	48 8d 50 08          	lea    0x8(%rax),%rdx
  30702b:	49 89 52 08          	mov    %rdx,0x8(%r10)
  30702f:	eb e4                	jmp    307015 <vsnprintf+0xc45>
  307031:	41 89 c6             	mov    %eax,%r14d
  307034:	e9 a0 fa ff ff       	jmpq   306ad9 <vsnprintf+0x709>
  307039:	31 c9                	xor    %ecx,%ecx
  30703b:	48 8d 45 a0          	lea    -0x60(%rbp),%rax
  30703f:	48 ba 20 db 33 00 00 	movabs $0x33db20,%rdx
  307046:	00 00 00 
  307049:	eb 11                	jmp    30705c <vsnprintf+0xc8c>
  30704b:	48 83 c1 01          	add    $0x1,%rcx
  30704f:	48 83 f9 06          	cmp    $0x6,%rcx
  307053:	0f 84 64 fe ff ff    	je     306ebd <vsnprintf+0xaed>
  307059:	48 89 f0             	mov    %rsi,%rax
  30705c:	41 0f b6 34 0f       	movzbl (%r15,%rcx,1),%esi
  307061:	89 f7                	mov    %esi,%edi
  307063:	83 e6 0f             	and    $0xf,%esi
  307066:	40 c0 ef 04          	shr    $0x4,%dil
  30706a:	0f b6 34 32          	movzbl (%rdx,%rsi,1),%esi
  30706e:	83 e7 0f             	and    $0xf,%edi
  307071:	41 80 f8 4d          	cmp    $0x4d,%r8b
  307075:	0f b6 3c 3a          	movzbl (%rdx,%rdi,1),%edi
  307079:	40 88 70 01          	mov    %sil,0x1(%rax)
  30707d:	48 8d 70 02          	lea    0x2(%rax),%rsi
  307081:	40 88 38             	mov    %dil,(%rax)
  307084:	75 c5                	jne    30704b <vsnprintf+0xc7b>
  307086:	83 f9 05             	cmp    $0x5,%ecx
  307089:	0f 84 2e fe ff ff    	je     306ebd <vsnprintf+0xaed>
  30708f:	48 8d 70 03          	lea    0x3(%rax),%rsi
  307093:	c6 40 02 3a          	movb   $0x3a,0x2(%rax)
  307097:	eb b2                	jmp    30704b <vsnprintf+0xc7b>
  307099:	89 c2                	mov    %eax,%edx
  30709b:	83 c0 08             	add    $0x8,%eax
  30709e:	49 03 52 10          	add    0x10(%r10),%rdx
  3070a2:	41 89 02             	mov    %eax,(%r10)
  3070a5:	e9 46 f5 ff ff       	jmpq   3065f0 <vsnprintf+0x220>
  3070aa:	48 83 c7 01          	add    $0x1,%rdi
  3070ae:	41 8b 12             	mov    (%r10),%edx
  3070b1:	48 29 df             	sub    %rbx,%rdi
  3070b4:	48 63 ff             	movslq %edi,%rdi
  3070b7:	48 01 fb             	add    %rdi,%rbx
  3070ba:	83 fa 30             	cmp    $0x30,%edx
  3070bd:	73 1a                	jae    3070d9 <vsnprintf+0xd09>
  3070bf:	89 d0                	mov    %edx,%eax
  3070c1:	49 03 42 10          	add    0x10(%r10),%rax
  3070c5:	83 c2 08             	add    $0x8,%edx
  3070c8:	41 89 12             	mov    %edx,(%r10)
  3070cb:	0f b7 10             	movzwl (%rax),%edx
  3070ce:	41 bf 0d 00 00 00    	mov    $0xd,%r15d
  3070d4:	e9 5f f5 ff ff       	jmpq   306638 <vsnprintf+0x268>
  3070d9:	49 8b 42 08          	mov    0x8(%r10),%rax
  3070dd:	48 8d 50 08          	lea    0x8(%rax),%rdx
  3070e1:	49 89 52 08          	mov    %rdx,0x8(%r10)
  3070e5:	eb e4                	jmp    3070cb <vsnprintf+0xcfb>
  3070e7:	89 c2                	mov    %eax,%edx
  3070e9:	83 c0 08             	add    $0x8,%eax
  3070ec:	49 03 52 10          	add    0x10(%r10),%rdx
  3070f0:	41 89 02             	mov    %eax,(%r10)
  3070f3:	e9 d3 fc ff ff       	jmpq   306dcb <vsnprintf+0x9fb>
  3070f8:	89 c2                	mov    %eax,%edx
  3070fa:	83 c0 08             	add    $0x8,%eax
  3070fd:	49 03 52 10          	add    0x10(%r10),%rdx
  307101:	41 89 02             	mov    %eax,(%r10)
  307104:	e9 6d fc ff ff       	jmpq   306d76 <vsnprintf+0x9a6>
  307109:	8b 45 8c             	mov    -0x74(%rbp),%eax
  30710c:	44 89 d9             	mov    %r11d,%ecx
  30710f:	4c 89 95 68 ff ff ff 	mov    %r10,-0x98(%rbp)
  307116:	44 89 9d 70 ff ff ff 	mov    %r11d,-0x90(%rbp)
  30711d:	4c 89 e7             	mov    %r12,%rdi
  307120:	83 c9 61             	or     $0x61,%ecx
  307123:	41 b9 10 00 00 00    	mov    $0x10,%r9d
  307129:	41 b8 10 00 00 00    	mov    $0x10,%r8d
  30712f:	4c 89 fa             	mov    %r15,%rdx
  307132:	89 04 24             	mov    %eax,(%rsp)
  307135:	4c 89 ee             	mov    %r13,%rsi
  307138:	48 b8 40 4e 30 00 00 	movabs $0x304e40,%rax
  30713f:	00 00 00 
  307142:	ff d0                	callq  *%rax
  307144:	44 8b 9d 70 ff ff ff 	mov    -0x90(%rbp),%r11d
  30714b:	49 89 c4             	mov    %rax,%r12
  30714e:	4c 8b 95 68 ff ff ff 	mov    -0x98(%rbp),%r10
  307155:	e9 99 f8 ff ff       	jmpq   3069f3 <vsnprintf+0x623>
  30715a:	4c 89 95 68 ff ff ff 	mov    %r10,-0x98(%rbp)
  307161:	44 8b 4d 8c          	mov    -0x74(%rbp),%r9d
  307165:	45 89 f0             	mov    %r14d,%r8d
  307168:	44 89 d9             	mov    %r11d,%ecx
  30716b:	44 89 9d 70 ff ff ff 	mov    %r11d,-0x90(%rbp)
  307172:	48 ba 58 eb 33 00 00 	movabs $0x33eb58,%rdx
  307179:	00 00 00 
  30717c:	e9 5b fd ff ff       	jmpq   306edc <vsnprintf+0xb0c>
  307181:	49 83 c4 01          	add    $0x1,%r12
  307185:	bf 01 00 00 00       	mov    $0x1,%edi
  30718a:	ba 01 00 00 00       	mov    $0x1,%edx
  30718f:	e9 c3 fc ff ff       	jmpq   306e57 <vsnprintf+0xa87>
  307194:	48 b8 04 a0 34 00 00 	movabs $0x34a004,%rax
  30719b:	00 00 00 
  30719e:	8b 00                	mov    (%rax),%eax
  3071a0:	85 c0                	test   %eax,%eax
  3071a2:	75 37                	jne    3071db <vsnprintf+0xe0b>
  3071a4:	31 c0                	xor    %eax,%eax
  3071a6:	48 ba 7e eb 33 00 00 	movabs $0x33eb7e,%rdx
  3071ad:	00 00 00 
  3071b0:	be 4b 04 00 00       	mov    $0x44b,%esi
  3071b5:	48 bf 86 eb 33 00 00 	movabs $0x33eb86,%rdi
  3071bc:	00 00 00 
  3071bf:	48 b9 10 63 30 00 00 	movabs $0x306310,%rcx
  3071c6:	00 00 00 
  3071c9:	ff d1                	callq  *%rcx
  3071cb:	48 b8 04 a0 34 00 00 	movabs $0x34a004,%rax
  3071d2:	00 00 00 
  3071d5:	c7 00 01 00 00 00    	movl   $0x1,(%rax)
  3071db:	31 c0                	xor    %eax,%eax
  3071dd:	e9 1c f3 ff ff       	jmpq   3064fe <vsnprintf+0x12e>
  3071e2:	83 fe 6c             	cmp    $0x6c,%esi
  3071e5:	74 31                	je     307218 <vsnprintf+0xe48>
  3071e7:	83 fe 68             	cmp    $0x68,%esi
  3071ea:	89 c8                	mov    %ecx,%eax
  3071ec:	0f 85 6d f3 ff ff    	jne    30655f <vsnprintf+0x18f>
  3071f2:	48 8d 7a 02          	lea    0x2(%rdx),%rdi
  3071f6:	0f b6 42 02          	movzbl 0x2(%rdx),%eax
  3071fa:	40 b6 48             	mov    $0x48,%sil
  3071fd:	e9 5d f3 ff ff       	jmpq   30655f <vsnprintf+0x18f>
  307202:	66 0f 1f 44 00 00    	nopw   0x0(%rax,%rax,1)
  307208:	0f be f0             	movsbl %al,%esi
  30720b:	48 8d 7a 01          	lea    0x1(%rdx),%rdi
  30720f:	0f b6 42 01          	movzbl 0x1(%rdx),%eax
  307213:	e9 47 f3 ff ff       	jmpq   30655f <vsnprintf+0x18f>
  307218:	48 8d 7a 02          	lea    0x2(%rdx),%rdi
  30721c:	0f b6 42 02          	movzbl 0x2(%rdx),%eax
  307220:	40 b6 4c             	mov    $0x4c,%sil
  307223:	e9 37 f3 ff ff       	jmpq   30655f <vsnprintf+0x18f>
  307228:	0f 1f 84 00 00 00 00 	nopl   0x0(%rax,%rax,1)
  30722f:	00 

0000000000307230 <vscnprintf>:
  307230:	55                   	push   %rbp
  307231:	48 b8 d0 63 30 00 00 	movabs $0x3063d0,%rax
  307238:	00 00 00 
  30723b:	48 89 e5             	mov    %rsp,%rbp
  30723e:	53                   	push   %rbx
  30723f:	48 89 f3             	mov    %rsi,%rbx
  307242:	48 83 ec 08          	sub    $0x8,%rsp
  307246:	ff d0                	callq  *%rax
  307248:	8d 53 ff             	lea    -0x1(%rbx),%edx
  30724b:	48 63 c8             	movslq %eax,%rcx
  30724e:	48 39 cb             	cmp    %rcx,%rbx
  307251:	0f 46 c2             	cmovbe %edx,%eax
  307254:	48 83 c4 08          	add    $0x8,%rsp
  307258:	5b                   	pop    %rbx
  307259:	5d                   	pop    %rbp
  30725a:	c3                   	retq   
  30725b:	0f 1f 44 00 00       	nopl   0x0(%rax,%rax,1)

0000000000307260 <snprintf>:
  307260:	55                   	push   %rbp
  307261:	48 89 e5             	mov    %rsp,%rbp
  307264:	48 81 ec d0 00 00 00 	sub    $0xd0,%rsp
  30726b:	84 c0                	test   %al,%al
  30726d:	48 89 8d 68 ff ff ff 	mov    %rcx,-0x98(%rbp)
  307274:	4c 89 85 70 ff ff ff 	mov    %r8,-0x90(%rbp)
  30727b:	4c 89 8d 78 ff ff ff 	mov    %r9,-0x88(%rbp)
  307282:	74 20                	je     3072a4 <snprintf+0x44>
  307284:	0f 29 45 80          	movaps %xmm0,-0x80(%rbp)
  307288:	0f 29 4d 90          	movaps %xmm1,-0x70(%rbp)
  30728c:	0f 29 55 a0          	movaps %xmm2,-0x60(%rbp)
  307290:	0f 29 5d b0          	movaps %xmm3,-0x50(%rbp)
  307294:	0f 29 65 c0          	movaps %xmm4,-0x40(%rbp)
  307298:	0f 29 6d d0          	movaps %xmm5,-0x30(%rbp)
  30729c:	0f 29 75 e0          	movaps %xmm6,-0x20(%rbp)
  3072a0:	0f 29 7d f0          	movaps %xmm7,-0x10(%rbp)
  3072a4:	48 8d 45 10          	lea    0x10(%rbp),%rax
  3072a8:	48 8d 8d 38 ff ff ff 	lea    -0xc8(%rbp),%rcx
  3072af:	48 89 85 40 ff ff ff 	mov    %rax,-0xc0(%rbp)
  3072b6:	48 8d 85 50 ff ff ff 	lea    -0xb0(%rbp),%rax
  3072bd:	c7 85 38 ff ff ff 18 	movl   $0x18,-0xc8(%rbp)
  3072c4:	00 00 00 
  3072c7:	c7 85 3c ff ff ff 30 	movl   $0x30,-0xc4(%rbp)
  3072ce:	00 00 00 
  3072d1:	48 89 85 48 ff ff ff 	mov    %rax,-0xb8(%rbp)
  3072d8:	48 b8 d0 63 30 00 00 	movabs $0x3063d0,%rax
  3072df:	00 00 00 
  3072e2:	ff d0                	callq  *%rax
  3072e4:	c9                   	leaveq 
  3072e5:	c3                   	retq   
  3072e6:	66 2e 0f 1f 84 00 00 	nopw   %cs:0x0(%rax,%rax,1)
  3072ed:	00 00 00 

00000000003072f0 <scnprintf>:
  3072f0:	55                   	push   %rbp
  3072f1:	48 89 e5             	mov    %rsp,%rbp
  3072f4:	53                   	push   %rbx
  3072f5:	48 89 f3             	mov    %rsi,%rbx
  3072f8:	48 81 ec d8 00 00 00 	sub    $0xd8,%rsp
  3072ff:	84 c0                	test   %al,%al
  307301:	48 89 8d 58 ff ff ff 	mov    %rcx,-0xa8(%rbp)
  307308:	4c 89 85 60 ff ff ff 	mov    %r8,-0xa0(%rbp)
  30730f:	4c 89 8d 68 ff ff ff 	mov    %r9,-0x98(%rbp)
  307316:	74 23                	je     30733b <scnprintf+0x4b>
  307318:	0f 29 85 70 ff ff ff 	movaps %xmm0,-0x90(%rbp)
  30731f:	0f 29 4d 80          	movaps %xmm1,-0x80(%rbp)
  307323:	0f 29 55 90          	movaps %xmm2,-0x70(%rbp)
  307327:	0f 29 5d a0          	movaps %xmm3,-0x60(%rbp)
  30732b:	0f 29 65 b0          	movaps %xmm4,-0x50(%rbp)
  30732f:	0f 29 6d c0          	movaps %xmm5,-0x40(%rbp)
  307333:	0f 29 75 d0          	movaps %xmm6,-0x30(%rbp)
  307337:	0f 29 7d e0          	movaps %xmm7,-0x20(%rbp)
  30733b:	48 8d 45 10          	lea    0x10(%rbp),%rax
  30733f:	48 8d 8d 28 ff ff ff 	lea    -0xd8(%rbp),%rcx
  307346:	48 89 de             	mov    %rbx,%rsi
  307349:	48 89 85 30 ff ff ff 	mov    %rax,-0xd0(%rbp)
  307350:	48 8d 85 40 ff ff ff 	lea    -0xc0(%rbp),%rax
  307357:	c7 85 28 ff ff ff 18 	movl   $0x18,-0xd8(%rbp)
  30735e:	00 00 00 
  307361:	c7 85 2c ff ff ff 30 	movl   $0x30,-0xd4(%rbp)
  307368:	00 00 00 
  30736b:	48 89 85 38 ff ff ff 	mov    %rax,-0xc8(%rbp)
  307372:	48 b8 d0 63 30 00 00 	movabs $0x3063d0,%rax
  307379:	00 00 00 
  30737c:	ff d0                	callq  *%rax
  30737e:	8d 53 ff             	lea    -0x1(%rbx),%edx
  307381:	48 63 c8             	movslq %eax,%rcx
  307384:	48 39 cb             	cmp    %rcx,%rbx
  307387:	0f 46 c2             	cmovbe %edx,%eax
  30738a:	48 81 c4 d8 00 00 00 	add    $0xd8,%rsp
  307391:	5b                   	pop    %rbx
  307392:	5d                   	pop    %rbp
  307393:	c3                   	retq   
  307394:	66 66 66 2e 0f 1f 84 	data32 data32 nopw %cs:0x0(%rax,%rax,1)
  30739b:	00 00 00 00 00 

00000000003073a0 <vsprintf>:
  3073a0:	55                   	push   %rbp
  3073a1:	48 89 d1             	mov    %rdx,%rcx
  3073a4:	48 b8 d0 63 30 00 00 	movabs $0x3063d0,%rax
  3073ab:	00 00 00 
  3073ae:	48 89 f2             	mov    %rsi,%rdx
  3073b1:	be ff ff ff 7f       	mov    $0x7fffffff,%esi
  3073b6:	48 89 e5             	mov    %rsp,%rbp
  3073b9:	5d                   	pop    %rbp
  3073ba:	ff e0                	jmpq   *%rax
  3073bc:	0f 1f 40 00          	nopl   0x0(%rax)

00000000003073c0 <sprintf>:
  3073c0:	55                   	push   %rbp
  3073c1:	48 89 e5             	mov    %rsp,%rbp
  3073c4:	48 81 ec d0 00 00 00 	sub    $0xd0,%rsp
  3073cb:	84 c0                	test   %al,%al
  3073cd:	48 89 95 60 ff ff ff 	mov    %rdx,-0xa0(%rbp)
  3073d4:	48 89 8d 68 ff ff ff 	mov    %rcx,-0x98(%rbp)
  3073db:	4c 89 85 70 ff ff ff 	mov    %r8,-0x90(%rbp)
  3073e2:	4c 89 8d 78 ff ff ff 	mov    %r9,-0x88(%rbp)
  3073e9:	74 20                	je     30740b <sprintf+0x4b>
  3073eb:	0f 29 45 80          	movaps %xmm0,-0x80(%rbp)
  3073ef:	0f 29 4d 90          	movaps %xmm1,-0x70(%rbp)
  3073f3:	0f 29 55 a0          	movaps %xmm2,-0x60(%rbp)
  3073f7:	0f 29 5d b0          	movaps %xmm3,-0x50(%rbp)
  3073fb:	0f 29 65 c0          	movaps %xmm4,-0x40(%rbp)
  3073ff:	0f 29 6d d0          	movaps %xmm5,-0x30(%rbp)
  307403:	0f 29 75 e0          	movaps %xmm6,-0x20(%rbp)
  307407:	0f 29 7d f0          	movaps %xmm7,-0x10(%rbp)
  30740b:	48 8d 45 10          	lea    0x10(%rbp),%rax
  30740f:	48 89 f2             	mov    %rsi,%rdx
  307412:	48 8d 8d 38 ff ff ff 	lea    -0xc8(%rbp),%rcx
  307419:	be ff ff ff 7f       	mov    $0x7fffffff,%esi
  30741e:	48 89 85 40 ff ff ff 	mov    %rax,-0xc0(%rbp)
  307425:	48 8d 85 50 ff ff ff 	lea    -0xb0(%rbp),%rax
  30742c:	c7 85 38 ff ff ff 10 	movl   $0x10,-0xc8(%rbp)
  307433:	00 00 00 
  307436:	c7 85 3c ff ff ff 30 	movl   $0x30,-0xc4(%rbp)
  30743d:	00 00 00 
  307440:	48 89 85 48 ff ff ff 	mov    %rax,-0xb8(%rbp)
  307447:	48 b8 d0 63 30 00 00 	movabs $0x3063d0,%rax
  30744e:	00 00 00 
  307451:	ff d0                	callq  *%rax
  307453:	c9                   	leaveq 
  307454:	c3                   	retq   
  307455:	66 2e 0f 1f 84 00 00 	nopw   %cs:0x0(%rax,%rax,1)
  30745c:	00 00 00 
  30745f:	90                   	nop

0000000000307460 <printnum_16>:
  307460:	55                   	push   %rbp
  307461:	48 89 f9             	mov    %rdi,%rcx
  307464:	48 bf 40 df 33 00 00 	movabs $0x33df40,%rdi
  30746b:	00 00 00 
  30746e:	48 89 e5             	mov    %rsp,%rbp
  307471:	41 56                	push   %r14
  307473:	48 8d 45 d0          	lea    -0x30(%rbp),%rax
  307477:	41 55                	push   %r13
  307479:	49 89 d5             	mov    %rdx,%r13
  30747c:	48 83 c0 07          	add    $0x7,%rax
  307480:	41 54                	push   %r12
  307482:	49 89 f4             	mov    %rsi,%r12
  307485:	48 8d 75 cf          	lea    -0x31(%rbp),%rsi
  307489:	53                   	push   %rbx
  30748a:	48 83 ec 10          	sub    $0x10,%rsp
  30748e:	66 90                	xchg   %ax,%ax
  307490:	48 89 ca             	mov    %rcx,%rdx
  307493:	48 83 e8 01          	sub    $0x1,%rax
  307497:	48 c1 e9 04          	shr    $0x4,%rcx
  30749b:	83 e2 0f             	and    $0xf,%edx
  30749e:	48 39 f0             	cmp    %rsi,%rax
  3074a1:	0f b6 14 17          	movzbl (%rdi,%rdx,1),%edx
  3074a5:	88 50 01             	mov    %dl,0x1(%rax)
  3074a8:	75 e6                	jne    307490 <printnum_16+0x30>
  3074aa:	48 8d 5d d0          	lea    -0x30(%rbp),%rbx
  3074ae:	4c 8d 73 08          	lea    0x8(%rbx),%r14
  3074b2:	66 0f 1f 44 00 00    	nopw   0x0(%rax,%rax,1)
  3074b8:	0f be 33             	movsbl (%rbx),%esi
  3074bb:	48 83 c3 01          	add    $0x1,%rbx
  3074bf:	4c 89 ef             	mov    %r13,%rdi
  3074c2:	41 ff d4             	callq  *%r12
  3074c5:	4c 39 f3             	cmp    %r14,%rbx
  3074c8:	75 ee                	jne    3074b8 <printnum_16+0x58>
  3074ca:	48 83 c4 10          	add    $0x10,%rsp
  3074ce:	5b                   	pop    %rbx
  3074cf:	41 5c                	pop    %r12
  3074d1:	41 5d                	pop    %r13
  3074d3:	41 5e                	pop    %r14
  3074d5:	5d                   	pop    %rbp
  3074d6:	c3                   	retq   
  3074d7:	66 0f 1f 84 00 00 00 	nopw   0x0(%rax,%rax,1)
  3074de:	00 00 

00000000003074e0 <_doprnt>:
  3074e0:	55                   	push   %rbp
  3074e1:	48 89 e5             	mov    %rsp,%rbp
  3074e4:	41 57                	push   %r15
  3074e6:	41 56                	push   %r14
  3074e8:	41 55                	push   %r13
  3074ea:	4d 89 c5             	mov    %r8,%r13
  3074ed:	41 54                	push   %r12
  3074ef:	49 89 fc             	mov    %rdi,%r12
  3074f2:	53                   	push   %rbx
  3074f3:	48 89 cb             	mov    %rcx,%rbx
  3074f6:	48 81 ec 98 00 00 00 	sub    $0x98,%rsp
  3074fd:	48 89 b5 70 ff ff ff 	mov    %rsi,-0x90(%rbp)
  307504:	89 95 5c ff ff ff    	mov    %edx,-0xa4(%rbp)
  30750a:	66 0f 1f 44 00 00    	nopw   0x0(%rax,%rax,1)
  307510:	41 0f be 34 24       	movsbl (%r12),%esi
  307515:	40 84 f6             	test   %sil,%sil
  307518:	74 19                	je     307533 <_doprnt+0x53>
  30751a:	40 80 fe 25          	cmp    $0x25,%sil
  30751e:	74 28                	je     307548 <_doprnt+0x68>
  307520:	49 83 c4 01          	add    $0x1,%r12
  307524:	4c 89 ef             	mov    %r13,%rdi
  307527:	ff d3                	callq  *%rbx
  307529:	41 0f be 34 24       	movsbl (%r12),%esi
  30752e:	40 84 f6             	test   %sil,%sil
  307531:	75 e7                	jne    30751a <_doprnt+0x3a>
  307533:	48 81 c4 98 00 00 00 	add    $0x98,%rsp
  30753a:	5b                   	pop    %rbx
  30753b:	41 5c                	pop    %r12
  30753d:	41 5d                	pop    %r13
  30753f:	41 5e                	pop    %r14
  307541:	41 5f                	pop    %r15
  307543:	5d                   	pop    %rbp
  307544:	c3                   	retq   
  307545:	0f 1f 00             	nopl   (%rax)
  307548:	49 8d 44 24 02       	lea    0x2(%r12),%rax
  30754d:	45 31 f6             	xor    %r14d,%r14d
  307550:	45 31 c9             	xor    %r9d,%r9d
  307553:	31 c9                	xor    %ecx,%ecx
  307555:	be 20 00 00 00       	mov    $0x20,%esi
  30755a:	eb 1e                	jmp    30757a <_doprnt+0x9a>
  30755c:	0f 1f 40 00          	nopl   0x0(%rax)
  307560:	80 fa 2d             	cmp    $0x2d,%dl
  307563:	74 2b                	je     307590 <_doprnt+0xb0>
  307565:	80 fa 2b             	cmp    $0x2b,%dl
  307568:	74 36                	je     3075a0 <_doprnt+0xc0>
  30756a:	80 fa 20             	cmp    $0x20,%dl
  30756d:	75 41                	jne    3075b0 <_doprnt+0xd0>
  30756f:	45 85 c9             	test   %r9d,%r9d
  307572:	44 0f 44 ce          	cmove  %esi,%r9d
  307576:	48 83 c0 01          	add    $0x1,%rax
  30757a:	0f be 50 ff          	movsbl -0x1(%rax),%edx
  30757e:	4c 8d 78 ff          	lea    -0x1(%rax),%r15
  307582:	80 fa 23             	cmp    $0x23,%dl
  307585:	75 d9                	jne    307560 <_doprnt+0x80>
  307587:	41 be 01 00 00 00    	mov    $0x1,%r14d
  30758d:	eb e7                	jmp    307576 <_doprnt+0x96>
  30758f:	90                   	nop
  307590:	b9 01 00 00 00       	mov    $0x1,%ecx
  307595:	eb df                	jmp    307576 <_doprnt+0x96>
  307597:	66 0f 1f 84 00 00 00 	nopw   0x0(%rax,%rax,1)
  30759e:	00 00 
  3075a0:	41 b9 2b 00 00 00    	mov    $0x2b,%r9d
  3075a6:	eb ce                	jmp    307576 <_doprnt+0x96>
  3075a8:	0f 1f 84 00 00 00 00 	nopl   0x0(%rax,%rax,1)
  3075af:	00 
  3075b0:	80 fa 30             	cmp    $0x30,%dl
  3075b3:	88 8d 78 ff ff ff    	mov    %cl,-0x88(%rbp)
  3075b9:	4c 89 fe             	mov    %r15,%rsi
  3075bc:	c6 45 80 20          	movb   $0x20,-0x80(%rbp)
  3075c0:	0f 84 90 00 00 00    	je     307656 <_doprnt+0x176>
  3075c6:	0f b6 c2             	movzbl %dl,%eax
  3075c9:	48 b9 20 b2 33 00 00 	movabs $0x33b220,%rcx
  3075d0:	00 00 00 
  3075d3:	45 31 db             	xor    %r11d,%r11d
  3075d6:	f6 04 01 04          	testb  $0x4,(%rcx,%rax,1)
  3075da:	75 54                	jne    307630 <_doprnt+0x150>
  3075dc:	80 fa 2a             	cmp    $0x2a,%dl
  3075df:	0f 84 d2 00 00 00    	je     3076b7 <_doprnt+0x1d7>
  3075e5:	80 fa 2e             	cmp    $0x2e,%dl
  3075e8:	b8 ff ff ff ff       	mov    $0xffffffff,%eax
  3075ed:	74 77                	je     307666 <_doprnt+0x186>
  3075ef:	45 31 e4             	xor    %r12d,%r12d
  3075f2:	80 fa 6c             	cmp    $0x6c,%dl
  3075f5:	75 1a                	jne    307611 <_doprnt+0x131>
  3075f7:	66 0f 1f 84 00 00 00 	nopw   0x0(%rax,%rax,1)
  3075fe:	00 00 
  307600:	49 83 c7 01          	add    $0x1,%r15
  307604:	41 0f b6 17          	movzbl (%r15),%edx
  307608:	41 83 c4 01          	add    $0x1,%r12d
  30760c:	80 fa 6c             	cmp    $0x6c,%dl
  30760f:	74 ef                	je     307600 <_doprnt+0x120>
  307611:	80 fa 7a             	cmp    $0x7a,%dl
  307614:	0f 87 1f 0a 00 00    	ja     308039 <_doprnt+0xb59>
  30761a:	0f b6 f2             	movzbl %dl,%esi
  30761d:	48 b9 40 db 33 00 00 	movabs $0x33db40,%rcx
  307624:	00 00 00 
  307627:	ff 24 f1             	jmpq   *(%rcx,%rsi,8)
  30762a:	66 0f 1f 44 00 00    	nopw   0x0(%rax,%rax,1)
  307630:	43 8d 04 9b          	lea    (%r11,%r11,4),%eax
  307634:	49 83 c7 01          	add    $0x1,%r15
  307638:	48 b9 20 b2 33 00 00 	movabs $0x33b220,%rcx
  30763f:	00 00 00 
  307642:	44 8d 5c 42 d0       	lea    -0x30(%rdx,%rax,2),%r11d
  307647:	41 0f be 17          	movsbl (%r15),%edx
  30764b:	0f b6 c2             	movzbl %dl,%eax
  30764e:	f6 04 01 04          	testb  $0x4,(%rcx,%rax,1)
  307652:	75 dc                	jne    307630 <_doprnt+0x150>
  307654:	eb 8f                	jmp    3075e5 <_doprnt+0x105>
  307656:	49 89 c7             	mov    %rax,%r15
  307659:	0f be 56 01          	movsbl 0x1(%rsi),%edx
  30765d:	c6 45 80 30          	movb   $0x30,-0x80(%rbp)
  307661:	e9 60 ff ff ff       	jmpq   3075c6 <_doprnt+0xe6>
  307666:	41 0f be 57 01       	movsbl 0x1(%r15),%edx
  30766b:	48 b9 20 b2 33 00 00 	movabs $0x33b220,%rcx
  307672:	00 00 00 
  307675:	49 8d 7f 01          	lea    0x1(%r15),%rdi
  307679:	0f b6 f2             	movzbl %dl,%esi
  30767c:	f6 04 31 04          	testb  $0x4,(%rcx,%rsi,1)
  307680:	74 6e                	je     3076f0 <_doprnt+0x210>
  307682:	49 89 ff             	mov    %rdi,%r15
  307685:	31 c0                	xor    %eax,%eax
  307687:	66 0f 1f 84 00 00 00 	nopw   0x0(%rax,%rax,1)
  30768e:	00 00 
  307690:	8d 04 80             	lea    (%rax,%rax,4),%eax
  307693:	49 83 c7 01          	add    $0x1,%r15
  307697:	48 bf 20 b2 33 00 00 	movabs $0x33b220,%rdi
  30769e:	00 00 00 
  3076a1:	8d 44 42 d0          	lea    -0x30(%rdx,%rax,2),%eax
  3076a5:	41 0f be 17          	movsbl (%r15),%edx
  3076a9:	0f b6 ca             	movzbl %dl,%ecx
  3076ac:	f6 04 0f 04          	testb  $0x4,(%rdi,%rcx,1)
  3076b0:	75 de                	jne    307690 <_doprnt+0x1b0>
  3076b2:	e9 38 ff ff ff       	jmpq   3075ef <_doprnt+0x10f>
  3076b7:	48 8b 85 70 ff ff ff 	mov    -0x90(%rbp),%rax
  3076be:	8b 00                	mov    (%rax),%eax
  3076c0:	83 f8 30             	cmp    $0x30,%eax
  3076c3:	73 3c                	jae    307701 <_doprnt+0x221>
  3076c5:	48 8b bd 70 ff ff ff 	mov    -0x90(%rbp),%rdi
  3076cc:	89 c2                	mov    %eax,%edx
  3076ce:	83 c0 08             	add    $0x8,%eax
  3076d1:	48 03 57 10          	add    0x10(%rdi),%rdx
  3076d5:	89 07                	mov    %eax,(%rdi)
  3076d7:	49 8d 47 01          	lea    0x1(%r15),%rax
  3076db:	44 8b 1a             	mov    (%rdx),%r11d
  3076de:	45 85 db             	test   %r11d,%r11d
  3076e1:	78 3d                	js     307720 <_doprnt+0x240>
  3076e3:	41 0f b6 57 01       	movzbl 0x1(%r15),%edx
  3076e8:	49 89 c7             	mov    %rax,%r15
  3076eb:	e9 f5 fe ff ff       	jmpq   3075e5 <_doprnt+0x105>
  3076f0:	80 fa 2a             	cmp    $0x2a,%dl
  3076f3:	0f 84 fc 09 00 00    	je     3080f5 <_doprnt+0xc15>
  3076f9:	49 89 ff             	mov    %rdi,%r15
  3076fc:	e9 ee fe ff ff       	jmpq   3075ef <_doprnt+0x10f>
  307701:	48 8b bd 70 ff ff ff 	mov    -0x90(%rbp),%rdi
  307708:	48 8b 57 08          	mov    0x8(%rdi),%rdx
  30770c:	48 8d 42 08          	lea    0x8(%rdx),%rax
  307710:	48 89 47 08          	mov    %rax,0x8(%rdi)
  307714:	44 8b 1a             	mov    (%rdx),%r11d
  307717:	49 8d 47 01          	lea    0x1(%r15),%rax
  30771b:	45 85 db             	test   %r11d,%r11d
  30771e:	79 c3                	jns    3076e3 <_doprnt+0x203>
  307720:	80 b5 78 ff ff ff 01 	xorb   $0x1,-0x88(%rbp)
  307727:	41 f7 db             	neg    %r11d
  30772a:	eb b7                	jmp    3076e3 <_doprnt+0x203>
  30772c:	48 b8 08 a0 34 00 00 	movabs $0x34a008,%rax
  307733:	00 00 00 
  307736:	40 8a 30             	mov    (%rax),%sil
  307739:	bf 10 00 00 00       	mov    $0x10,%edi
  30773e:	41 83 fc 01          	cmp    $0x1,%r12d
  307742:	48 8b 85 70 ff ff ff 	mov    -0x90(%rbp),%rax
  307749:	0f 8e 00 05 00 00    	jle    307c4f <_doprnt+0x76f>
  30774f:	8b 00                	mov    (%rax),%eax
  307751:	83 f8 30             	cmp    $0x30,%eax
  307754:	0f 83 43 09 00 00    	jae    30809d <_doprnt+0xbbd>
  30775a:	48 8b 8d 70 ff ff ff 	mov    -0x90(%rbp),%rcx
  307761:	89 c2                	mov    %eax,%edx
  307763:	83 c0 08             	add    $0x8,%eax
  307766:	48 03 51 10          	add    0x10(%rcx),%rdx
  30776a:	89 01                	mov    %eax,(%rcx)
  30776c:	48 8b 02             	mov    (%rdx),%rax
  30776f:	48 85 c0             	test   %rax,%rax
  307772:	0f 88 00 05 00 00    	js     307c78 <_doprnt+0x798>
  307778:	44 0f b6 95 78 ff ff 	movzbl -0x88(%rbp),%r10d
  30777f:	ff 
  307780:	41 83 f2 01          	xor    $0x1,%r10d
  307784:	80 7d 80 20          	cmpb   $0x20,-0x80(%rbp)
  307788:	0f 94 c2             	sete   %dl
  30778b:	41 21 d2             	and    %edx,%r10d
  30778e:	40 84 f6             	test   %sil,%sil
  307791:	48 63 d0             	movslq %eax,%rdx
  307794:	48 0f 45 c2          	cmovne %rdx,%rax
  307798:	85 ff                	test   %edi,%edi
  30779a:	75 7e                	jne    30781a <_doprnt+0x33a>
  30779c:	bf 0a 00 00 00       	mov    $0xa,%edi
  3077a1:	e9 90 00 00 00       	jmpq   307836 <_doprnt+0x356>
  3077a6:	66 2e 0f 1f 84 00 00 	nopw   %cs:0x0(%rax,%rax,1)
  3077ad:	00 00 00 
  3077b0:	44 0f b6 95 78 ff ff 	movzbl -0x88(%rbp),%r10d
  3077b7:	ff 
  3077b8:	41 83 f2 01          	xor    $0x1,%r10d
  3077bc:	80 7d 80 20          	cmpb   $0x20,-0x80(%rbp)
  3077c0:	0f 94 c0             	sete   %al
  3077c3:	41 21 c2             	and    %eax,%r10d
  3077c6:	48 b8 08 a0 34 00 00 	movabs $0x34a008,%rax
  3077cd:	00 00 00 
  3077d0:	40 8a 30             	mov    (%rax),%sil
  3077d3:	bf 10 00 00 00       	mov    $0x10,%edi
  3077d8:	41 83 fc 01          	cmp    $0x1,%r12d
  3077dc:	48 8b 85 70 ff ff ff 	mov    -0x90(%rbp),%rax
  3077e3:	0f 8e e1 01 00 00    	jle    3079ca <_doprnt+0x4ea>
  3077e9:	8b 10                	mov    (%rax),%edx
  3077eb:	83 fa 30             	cmp    $0x30,%edx
  3077ee:	0f 83 91 08 00 00    	jae    308085 <_doprnt+0xba5>
  3077f4:	48 8b 8d 70 ff ff ff 	mov    -0x90(%rbp),%rcx
  3077fb:	89 d0                	mov    %edx,%eax
  3077fd:	83 c2 08             	add    $0x8,%edx
  307800:	48 03 41 10          	add    0x10(%rcx),%rax
  307804:	89 11                	mov    %edx,(%rcx)
  307806:	48 8b 00             	mov    (%rax),%rax
  307809:	45 31 c9             	xor    %r9d,%r9d
  30780c:	40 84 f6             	test   %sil,%sil
  30780f:	48 63 d0             	movslq %eax,%rdx
  307812:	48 0f 45 c2          	cmovne %rdx,%rax
  307816:	85 ff                	test   %edi,%edi
  307818:	74 82                	je     30779c <_doprnt+0x2bc>
  30781a:	48 85 c0             	test   %rax,%rax
  30781d:	74 17                	je     307836 <_doprnt+0x356>
  30781f:	45 84 f6             	test   %r14b,%r14b
  307822:	74 12                	je     307836 <_doprnt+0x356>
  307824:	83 ff 08             	cmp    $0x8,%edi
  307827:	0f 84 88 08 00 00    	je     3080b5 <_doprnt+0xbd5>
  30782d:	83 ff 10             	cmp    $0x10,%edi
  307830:	0f 84 93 08 00 00    	je     3080c9 <_doprnt+0xbe9>
  307836:	45 31 f6             	xor    %r14d,%r14d
  307839:	48 8d 4d 90          	lea    -0x70(%rbp),%rcx
  30783d:	4c 8d 61 3f          	lea    0x3f(%rcx),%r12
  307841:	eb 08                	jmp    30784b <_doprnt+0x36b>
  307843:	0f 1f 44 00 00       	nopl   0x0(%rax,%rax,1)
  307848:	49 89 f4             	mov    %rsi,%r12
  30784b:	31 d2                	xor    %edx,%edx
  30784d:	48 b9 20 df 33 00 00 	movabs $0x33df20,%rcx
  307854:	00 00 00 
  307857:	49 8d 74 24 ff       	lea    -0x1(%r12),%rsi
  30785c:	48 f7 f7             	div    %rdi
  30785f:	0f b6 14 11          	movzbl (%rcx,%rdx,1),%edx
  307863:	48 85 c0             	test   %rax,%rax
  307866:	88 56 01             	mov    %dl,0x1(%rsi)
  307869:	75 dd                	jne    307848 <_doprnt+0x368>
  30786b:	48 8d 45 90          	lea    -0x70(%rbp),%rax
  30786f:	48 89 45 88          	mov    %rax,-0x78(%rbp)
  307873:	44 2b 5d 88          	sub    -0x78(%rbp),%r11d
  307877:	41 83 f9 01          	cmp    $0x1,%r9d
  30787b:	41 8d 44 33 c1       	lea    -0x3f(%r11,%rsi,1),%eax
  307880:	89 45 88             	mov    %eax,-0x78(%rbp)
  307883:	83 55 88 ff          	adcl   $0xffffffff,-0x78(%rbp)
  307887:	4d 85 f6             	test   %r14,%r14
  30788a:	74 2e                	je     3078ba <_doprnt+0x3da>
  30788c:	44 89 95 60 ff ff ff 	mov    %r10d,-0xa0(%rbp)
  307893:	44 89 8d 68 ff ff ff 	mov    %r9d,-0x98(%rbp)
  30789a:	4c 89 f7             	mov    %r14,%rdi
  30789d:	48 b8 70 d2 30 00 00 	movabs $0x30d270,%rax
  3078a4:	00 00 00 
  3078a7:	ff d0                	callq  *%rax
  3078a9:	29 45 88             	sub    %eax,-0x78(%rbp)
  3078ac:	44 8b 95 60 ff ff ff 	mov    -0xa0(%rbp),%r10d
  3078b3:	44 8b 8d 68 ff ff ff 	mov    -0x98(%rbp),%r9d
  3078ba:	45 84 d2             	test   %r10b,%r10b
  3078bd:	74 47                	je     307906 <_doprnt+0x426>
  3078bf:	83 6d 88 01          	subl   $0x1,-0x78(%rbp)
  3078c3:	78 41                	js     307906 <_doprnt+0x426>
  3078c5:	4c 89 a5 60 ff ff ff 	mov    %r12,-0xa0(%rbp)
  3078cc:	44 8b 65 88          	mov    -0x78(%rbp),%r12d
  3078d0:	44 89 8d 68 ff ff ff 	mov    %r9d,-0x98(%rbp)
  3078d7:	66 0f 1f 84 00 00 00 	nopw   0x0(%rax,%rax,1)
  3078de:	00 00 
  3078e0:	41 83 ec 01          	sub    $0x1,%r12d
  3078e4:	be 20 00 00 00       	mov    $0x20,%esi
  3078e9:	4c 89 ef             	mov    %r13,%rdi
  3078ec:	ff d3                	callq  *%rbx
  3078ee:	41 83 fc ff          	cmp    $0xffffffff,%r12d
  3078f2:	75 ec                	jne    3078e0 <_doprnt+0x400>
  3078f4:	44 89 65 88          	mov    %r12d,-0x78(%rbp)
  3078f8:	44 8b 8d 68 ff ff ff 	mov    -0x98(%rbp),%r9d
  3078ff:	4c 8b a5 60 ff ff ff 	mov    -0xa0(%rbp),%r12
  307906:	45 85 c9             	test   %r9d,%r9d
  307909:	0f 85 34 07 00 00    	jne    308043 <_doprnt+0xb63>
  30790f:	4d 85 f6             	test   %r14,%r14
  307912:	74 1e                	je     307932 <_doprnt+0x452>
  307914:	41 0f be 36          	movsbl (%r14),%esi
  307918:	40 84 f6             	test   %sil,%sil
  30791b:	74 15                	je     307932 <_doprnt+0x452>
  30791d:	0f 1f 00             	nopl   (%rax)
  307920:	49 83 c6 01          	add    $0x1,%r14
  307924:	4c 89 ef             	mov    %r13,%rdi
  307927:	ff d3                	callq  *%rbx
  307929:	41 0f be 36          	movsbl (%r14),%esi
  30792d:	40 84 f6             	test   %sil,%sil
  307930:	75 ee                	jne    307920 <_doprnt+0x440>
  307932:	80 7d 80 30          	cmpb   $0x30,-0x80(%rbp)
  307936:	75 16                	jne    30794e <_doprnt+0x46e>
  307938:	e9 18 07 00 00       	jmpq   308055 <_doprnt+0xb75>
  30793d:	0f 1f 00             	nopl   (%rax)
  307940:	41 0f be 34 24       	movsbl (%r12),%esi
  307945:	49 83 c4 01          	add    $0x1,%r12
  307949:	4c 89 ef             	mov    %r13,%rdi
  30794c:	ff d3                	callq  *%rbx
  30794e:	48 8d 45 d0          	lea    -0x30(%rbp),%rax
  307952:	49 39 c4             	cmp    %rax,%r12
  307955:	75 e9                	jne    307940 <_doprnt+0x460>
  307957:	80 bd 78 ff ff ff 00 	cmpb   $0x0,-0x88(%rbp)
  30795e:	0f 84 cc 06 00 00    	je     308030 <_doprnt+0xb50>
  307964:	44 8b 65 88          	mov    -0x78(%rbp),%r12d
  307968:	41 83 ec 01          	sub    $0x1,%r12d
  30796c:	0f 88 be 06 00 00    	js     308030 <_doprnt+0xb50>
  307972:	66 0f 1f 44 00 00    	nopw   0x0(%rax,%rax,1)
  307978:	41 83 ec 01          	sub    $0x1,%r12d
  30797c:	be 20 00 00 00       	mov    $0x20,%esi
  307981:	4c 89 ef             	mov    %r13,%rdi
  307984:	ff d3                	callq  *%rbx
  307986:	41 83 fc ff          	cmp    $0xffffffff,%r12d
  30798a:	75 ec                	jne    307978 <_doprnt+0x498>
  30798c:	e9 9f 06 00 00       	jmpq   308030 <_doprnt+0xb50>
  307991:	44 0f b6 95 78 ff ff 	movzbl -0x88(%rbp),%r10d
  307998:	ff 
  307999:	48 b8 08 a0 34 00 00 	movabs $0x34a008,%rax
  3079a0:	00 00 00 
  3079a3:	40 8a 30             	mov    (%rax),%sil
  3079a6:	bf 0a 00 00 00       	mov    $0xa,%edi
  3079ab:	41 83 f2 01          	xor    $0x1,%r10d
  3079af:	80 7d 80 20          	cmpb   $0x20,-0x80(%rbp)
  3079b3:	0f 94 c0             	sete   %al
  3079b6:	41 21 c2             	and    %eax,%r10d
  3079b9:	41 83 fc 01          	cmp    $0x1,%r12d
  3079bd:	48 8b 85 70 ff ff ff 	mov    -0x90(%rbp),%rax
  3079c4:	0f 8f 1f fe ff ff    	jg     3077e9 <_doprnt+0x309>
  3079ca:	8b 00                	mov    (%rax),%eax
  3079cc:	83 f8 30             	cmp    $0x30,%eax
  3079cf:	0f 83 08 07 00 00    	jae    3080dd <_doprnt+0xbfd>
  3079d5:	48 8b 8d 70 ff ff ff 	mov    -0x90(%rbp),%rcx
  3079dc:	89 c2                	mov    %eax,%edx
  3079de:	83 c0 08             	add    $0x8,%eax
  3079e1:	48 03 51 10          	add    0x10(%rcx),%rdx
  3079e5:	89 01                	mov    %eax,(%rcx)
  3079e7:	48 8b 02             	mov    (%rdx),%rax
  3079ea:	45 31 c9             	xor    %r9d,%r9d
  3079ed:	e9 9c fd ff ff       	jmpq   30778e <_doprnt+0x2ae>
  3079f2:	48 8b 85 70 ff ff ff 	mov    -0x90(%rbp),%rax
  3079f9:	8b 10                	mov    (%rax),%edx
  3079fb:	83 fa 30             	cmp    $0x30,%edx
  3079fe:	0f 83 9d 07 00 00    	jae    3081a1 <_doprnt+0xcc1>
  307a04:	48 8b bd 70 ff ff ff 	mov    -0x90(%rbp),%rdi
  307a0b:	89 d0                	mov    %edx,%eax
  307a0d:	83 c2 08             	add    $0x8,%edx
  307a10:	48 03 47 10          	add    0x10(%rdi),%rax
  307a14:	89 17                	mov    %edx,(%rdi)
  307a16:	48 8b 38             	mov    (%rax),%rdi
  307a19:	8b 40 04             	mov    0x4(%rax),%eax
  307a1c:	41 80 fe 01          	cmp    $0x1,%r14b
  307a20:	89 85 68 ff ff ff    	mov    %eax,-0x98(%rbp)
  307a26:	48 19 c0             	sbb    %rax,%rax
  307a29:	48 89 7d 88          	mov    %rdi,-0x78(%rbp)
  307a2d:	48 83 e0 fe          	and    $0xfffffffffffffffe,%rax
  307a31:	45 85 e4             	test   %r12d,%r12d
  307a34:	0f 84 9d 08 00 00    	je     3082d7 <_doprnt+0xdf7>
  307a3a:	48 83 c0 13          	add    $0x13,%rax
  307a3e:	45 85 db             	test   %r11d,%r11d
  307a41:	0f 9f 45 80          	setg   -0x80(%rbp)
  307a45:	f6 85 78 ff ff ff 01 	testb  $0x1,-0x88(%rbp)
  307a4c:	75 0a                	jne    307a58 <_doprnt+0x578>
  307a4e:	80 7d 80 00          	cmpb   $0x0,-0x80(%rbp)
  307a52:	0f 85 79 07 00 00    	jne    3081d1 <_doprnt+0xcf1>
  307a58:	45 84 f6             	test   %r14b,%r14b
  307a5b:	44 89 9d 50 ff ff ff 	mov    %r11d,-0xb0(%rbp)
  307a62:	48 89 85 60 ff ff ff 	mov    %rax,-0xa0(%rbp)
  307a69:	0f 85 4a 0b 00 00    	jne    3085b9 <_doprnt+0x10d9>
  307a6f:	8b 7d 88             	mov    -0x78(%rbp),%edi
  307a72:	4c 89 ea             	mov    %r13,%rdx
  307a75:	48 89 de             	mov    %rbx,%rsi
  307a78:	49 bc 60 74 30 00 00 	movabs $0x307460,%r12
  307a7f:	00 00 00 
  307a82:	41 ff d4             	callq  *%r12
  307a85:	be 3a 00 00 00       	mov    $0x3a,%esi
  307a8a:	4c 89 ef             	mov    %r13,%rdi
  307a8d:	ff d3                	callq  *%rbx
  307a8f:	8b bd 68 ff ff ff    	mov    -0x98(%rbp),%edi
  307a95:	4c 89 ea             	mov    %r13,%rdx
  307a98:	48 89 de             	mov    %rbx,%rsi
  307a9b:	41 ff d4             	callq  *%r12
  307a9e:	48 8b 85 60 ff ff ff 	mov    -0xa0(%rbp),%rax
  307aa5:	44 8b 9d 50 ff ff ff 	mov    -0xb0(%rbp),%r11d
  307aac:	f6 85 78 ff ff ff 01 	testb  $0x1,-0x88(%rbp)
  307ab3:	0f 84 77 05 00 00    	je     308030 <_doprnt+0xb50>
  307ab9:	80 7d 80 00          	cmpb   $0x0,-0x80(%rbp)
  307abd:	0f 84 6d 05 00 00    	je     308030 <_doprnt+0xb50>
  307ac3:	4d 63 e3             	movslq %r11d,%r12
  307ac6:	4c 39 e0             	cmp    %r12,%rax
  307ac9:	0f 8d 61 05 00 00    	jge    308030 <_doprnt+0xb50>
  307acf:	49 89 c6             	mov    %rax,%r14
  307ad2:	49 83 c6 01          	add    $0x1,%r14
  307ad6:	be 20 00 00 00       	mov    $0x20,%esi
  307adb:	4c 89 ef             	mov    %r13,%rdi
  307ade:	ff d3                	callq  *%rbx
  307ae0:	4d 39 e6             	cmp    %r12,%r14
  307ae3:	7c ed                	jl     307ad2 <_doprnt+0x5f2>
  307ae5:	e9 46 05 00 00       	jmpq   308030 <_doprnt+0xb50>
  307aea:	48 8b bd 70 ff ff ff 	mov    -0x90(%rbp),%rdi
  307af1:	83 f8 ff             	cmp    $0xffffffff,%eax
  307af4:	ba ff ff ff 7f       	mov    $0x7fffffff,%edx
  307af9:	0f 44 c2             	cmove  %edx,%eax
  307afc:	8b 0f                	mov    (%rdi),%ecx
  307afe:	83 f9 30             	cmp    $0x30,%ecx
  307b01:	0f 83 82 06 00 00    	jae    308189 <_doprnt+0xca9>
  307b07:	89 ca                	mov    %ecx,%edx
  307b09:	48 03 57 10          	add    0x10(%rdi),%rdx
  307b0d:	83 c1 08             	add    $0x8,%ecx
  307b10:	89 0f                	mov    %ecx,(%rdi)
  307b12:	4c 8b 22             	mov    (%rdx),%r12
  307b15:	48 ba 72 00 34 00 00 	movabs $0x340072,%rdx
  307b1c:	00 00 00 
  307b1f:	4d 85 e4             	test   %r12,%r12
  307b22:	4c 0f 44 e2          	cmove  %rdx,%r12
  307b26:	f6 85 78 ff ff ff 01 	testb  $0x1,-0x88(%rbp)
  307b2d:	0f 85 93 07 00 00    	jne    3082c6 <_doprnt+0xde6>
  307b33:	45 85 db             	test   %r11d,%r11d
  307b36:	0f 8e 8a 07 00 00    	jle    3082c6 <_doprnt+0xde6>
  307b3c:	41 0f be 34 24       	movsbl (%r12),%esi
  307b41:	40 84 f6             	test   %sil,%sil
  307b44:	0f 84 69 0b 00 00    	je     3086b3 <_doprnt+0x11d3>
  307b4a:	48 63 f8             	movslq %eax,%rdi
  307b4d:	45 31 f6             	xor    %r14d,%r14d
  307b50:	48 85 ff             	test   %rdi,%rdi
  307b53:	48 89 f9             	mov    %rdi,%rcx
  307b56:	48 89 fa             	mov    %rdi,%rdx
  307b59:	7f 0a                	jg     307b65 <_doprnt+0x685>
  307b5b:	e9 53 0b 00 00       	jmpq   3086b3 <_doprnt+0x11d3>
  307b60:	49 39 d6             	cmp    %rdx,%r14
  307b63:	7d 0b                	jge    307b70 <_doprnt+0x690>
  307b65:	49 83 c6 01          	add    $0x1,%r14
  307b69:	43 80 3c 34 00       	cmpb   $0x0,(%r12,%r14,1)
  307b6e:	75 f0                	jne    307b60 <_doprnt+0x680>
  307b70:	49 63 fb             	movslq %r11d,%rdi
  307b73:	49 39 fe             	cmp    %rdi,%r14
  307b76:	48 89 7d 88          	mov    %rdi,-0x78(%rbp)
  307b7a:	7d 41                	jge    307bbd <_doprnt+0x6dd>
  307b7c:	4c 89 65 80          	mov    %r12,-0x80(%rbp)
  307b80:	4d 89 f4             	mov    %r14,%r12
  307b83:	4c 8b 75 88          	mov    -0x78(%rbp),%r14
  307b87:	89 85 68 ff ff ff    	mov    %eax,-0x98(%rbp)
  307b8d:	49 83 c4 01          	add    $0x1,%r12
  307b91:	be 20 00 00 00       	mov    $0x20,%esi
  307b96:	4c 89 ef             	mov    %r13,%rdi
  307b99:	ff d3                	callq  *%rbx
  307b9b:	4d 39 f4             	cmp    %r14,%r12
  307b9e:	7c ed                	jl     307b8d <_doprnt+0x6ad>
  307ba0:	4c 8b 65 80          	mov    -0x80(%rbp),%r12
  307ba4:	8b 85 68 ff ff ff    	mov    -0x98(%rbp),%eax
  307baa:	41 0f be 34 24       	movsbl (%r12),%esi
  307baf:	40 84 f6             	test   %sil,%sil
  307bb2:	0f 84 57 0a 00 00    	je     30860f <_doprnt+0x112f>
  307bb8:	48 98                	cltq   
  307bba:	48 89 c1             	mov    %rax,%rcx
  307bbd:	48 85 c9             	test   %rcx,%rcx
  307bc0:	41 be 01 00 00 00    	mov    $0x1,%r14d
  307bc6:	7e 2f                	jle    307bf7 <_doprnt+0x717>
  307bc8:	4c 89 7d 80          	mov    %r15,-0x80(%rbp)
  307bcc:	4d 89 f7             	mov    %r14,%r15
  307bcf:	49 89 ce             	mov    %rcx,%r14
  307bd2:	eb 0d                	jmp    307be1 <_doprnt+0x701>
  307bd4:	0f 1f 40 00          	nopl   0x0(%rax)
  307bd8:	49 83 c7 01          	add    $0x1,%r15
  307bdc:	4d 39 f7             	cmp    %r14,%r15
  307bdf:	7f 0f                	jg     307bf0 <_doprnt+0x710>
  307be1:	4c 89 ef             	mov    %r13,%rdi
  307be4:	ff d3                	callq  *%rbx
  307be6:	43 0f be 34 3c       	movsbl (%r12,%r15,1),%esi
  307beb:	40 84 f6             	test   %sil,%sil
  307bee:	75 e8                	jne    307bd8 <_doprnt+0x6f8>
  307bf0:	4d 89 fe             	mov    %r15,%r14
  307bf3:	4c 8b 7d 80          	mov    -0x80(%rbp),%r15
  307bf7:	4c 3b 75 88          	cmp    -0x78(%rbp),%r14
  307bfb:	0f 8d 2f 04 00 00    	jge    308030 <_doprnt+0xb50>
  307c01:	80 bd 78 ff ff ff 00 	cmpb   $0x0,-0x88(%rbp)
  307c08:	0f 84 22 04 00 00    	je     308030 <_doprnt+0xb50>
  307c0e:	4c 8b 65 88          	mov    -0x78(%rbp),%r12
  307c12:	49 83 c6 01          	add    $0x1,%r14
  307c16:	be 20 00 00 00       	mov    $0x20,%esi
  307c1b:	4c 89 ef             	mov    %r13,%rdi
  307c1e:	ff d3                	callq  *%rbx
  307c20:	4d 39 f4             	cmp    %r14,%r12
  307c23:	7f ed                	jg     307c12 <_doprnt+0x732>
  307c25:	e9 06 04 00 00       	jmpq   308030 <_doprnt+0xb50>
  307c2a:	41 83 fc 01          	cmp    $0x1,%r12d
  307c2e:	48 b8 08 a0 34 00 00 	movabs $0x34a008,%rax
  307c35:	00 00 00 
  307c38:	48 63 bd 5c ff ff ff 	movslq -0xa4(%rbp),%rdi
  307c3f:	40 8a 30             	mov    (%rax),%sil
  307c42:	48 8b 85 70 ff ff ff 	mov    -0x90(%rbp),%rax
  307c49:	0f 8f 00 fb ff ff    	jg     30774f <_doprnt+0x26f>
  307c4f:	8b 10                	mov    (%rax),%edx
  307c51:	83 fa 30             	cmp    $0x30,%edx
  307c54:	0f 83 ce 04 00 00    	jae    308128 <_doprnt+0xc48>
  307c5a:	48 8b 8d 70 ff ff ff 	mov    -0x90(%rbp),%rcx
  307c61:	89 d0                	mov    %edx,%eax
  307c63:	83 c2 08             	add    $0x8,%edx
  307c66:	48 03 41 10          	add    0x10(%rcx),%rax
  307c6a:	89 11                	mov    %edx,(%rcx)
  307c6c:	48 8b 00             	mov    (%rax),%rax
  307c6f:	48 85 c0             	test   %rax,%rax
  307c72:	0f 89 00 fb ff ff    	jns    307778 <_doprnt+0x298>
  307c78:	44 0f b6 95 78 ff ff 	movzbl -0x88(%rbp),%r10d
  307c7f:	ff 
  307c80:	48 f7 d8             	neg    %rax
  307c83:	41 b9 2d 00 00 00    	mov    $0x2d,%r9d
  307c89:	41 83 f2 01          	xor    $0x1,%r10d
  307c8d:	80 7d 80 20          	cmpb   $0x20,-0x80(%rbp)
  307c91:	0f 94 c2             	sete   %dl
  307c94:	41 21 d2             	and    %edx,%r10d
  307c97:	e9 f2 fa ff ff       	jmpq   30778e <_doprnt+0x2ae>
  307c9c:	be 30 00 00 00       	mov    $0x30,%esi
  307ca1:	4c 89 ef             	mov    %r13,%rdi
  307ca4:	ff d3                	callq  *%rbx
  307ca6:	be 78 00 00 00       	mov    $0x78,%esi
  307cab:	4c 89 ef             	mov    %r13,%rdi
  307cae:	ff d3                	callq  *%rbx
  307cb0:	45 31 d2             	xor    %r10d,%r10d
  307cb3:	41 bb 08 00 00 00    	mov    $0x8,%r11d
  307cb9:	c6 45 80 30          	movb   $0x30,-0x80(%rbp)
  307cbd:	e9 04 fb ff ff       	jmpq   3077c6 <_doprnt+0x2e6>
  307cc2:	44 0f b6 95 78 ff ff 	movzbl -0x88(%rbp),%r10d
  307cc9:	ff 
  307cca:	48 b8 08 a0 34 00 00 	movabs $0x34a008,%rax
  307cd1:	00 00 00 
  307cd4:	40 8a 30             	mov    (%rax),%sil
  307cd7:	bf 08 00 00 00       	mov    $0x8,%edi
  307cdc:	41 83 f2 01          	xor    $0x1,%r10d
  307ce0:	80 7d 80 20          	cmpb   $0x20,-0x80(%rbp)
  307ce4:	0f 94 c0             	sete   %al
  307ce7:	41 21 c2             	and    %eax,%r10d
  307cea:	e9 e9 fa ff ff       	jmpq   3077d8 <_doprnt+0x2f8>
  307cef:	44 0f b6 95 78 ff ff 	movzbl -0x88(%rbp),%r10d
  307cf6:	ff 
  307cf7:	48 b8 08 a0 34 00 00 	movabs $0x34a008,%rax
  307cfe:	00 00 00 
  307d01:	40 8a 30             	mov    (%rax),%sil
  307d04:	48 63 bd 5c ff ff ff 	movslq -0xa4(%rbp),%rdi
  307d0b:	41 83 f2 01          	xor    $0x1,%r10d
  307d0f:	80 7d 80 20          	cmpb   $0x20,-0x80(%rbp)
  307d13:	0f 94 c0             	sete   %al
  307d16:	41 21 c2             	and    %eax,%r10d
  307d19:	e9 ba fa ff ff       	jmpq   3077d8 <_doprnt+0x2f8>
  307d1e:	48 b8 08 a0 34 00 00 	movabs $0x34a008,%rax
  307d25:	00 00 00 
  307d28:	bf 0a 00 00 00       	mov    $0xa,%edi
  307d2d:	40 8a 30             	mov    (%rax),%sil
  307d30:	e9 09 fa ff ff       	jmpq   30773e <_doprnt+0x25e>
  307d35:	48 8b 85 70 ff ff ff 	mov    -0x90(%rbp),%rax
  307d3c:	8b 10                	mov    (%rax),%edx
  307d3e:	83 fa 30             	cmp    $0x30,%edx
  307d41:	0f 83 2a 04 00 00    	jae    308171 <_doprnt+0xc91>
  307d47:	48 8b bd 70 ff ff ff 	mov    -0x90(%rbp),%rdi
  307d4e:	89 d0                	mov    %edx,%eax
  307d50:	83 c2 08             	add    $0x8,%edx
  307d53:	48 03 47 10          	add    0x10(%rdi),%rax
  307d57:	89 17                	mov    %edx,(%rdi)
  307d59:	0f be 30             	movsbl (%rax),%esi
  307d5c:	4c 89 ef             	mov    %r13,%rdi
  307d5f:	ff d3                	callq  *%rbx
  307d61:	e9 ca 02 00 00       	jmpq   308030 <_doprnt+0xb50>
  307d66:	bf 10 00 00 00       	mov    $0x10,%edi
  307d6b:	31 f6                	xor    %esi,%esi
  307d6d:	e9 cc f9 ff ff       	jmpq   30773e <_doprnt+0x25e>
  307d72:	44 0f b6 95 78 ff ff 	movzbl -0x88(%rbp),%r10d
  307d79:	ff 
  307d7a:	bf 10 00 00 00       	mov    $0x10,%edi
  307d7f:	41 83 f2 01          	xor    $0x1,%r10d
  307d83:	80 7d 80 20          	cmpb   $0x20,-0x80(%rbp)
  307d87:	0f 94 c0             	sete   %al
  307d8a:	31 f6                	xor    %esi,%esi
  307d8c:	41 21 c2             	and    %eax,%r10d
  307d8f:	e9 44 fa ff ff       	jmpq   3077d8 <_doprnt+0x2f8>
  307d94:	44 0f b6 95 78 ff ff 	movzbl -0x88(%rbp),%r10d
  307d9b:	ff 
  307d9c:	bf 0a 00 00 00       	mov    $0xa,%edi
  307da1:	41 83 f2 01          	xor    $0x1,%r10d
  307da5:	80 7d 80 20          	cmpb   $0x20,-0x80(%rbp)
  307da9:	0f 94 c0             	sete   %al
  307dac:	31 f6                	xor    %esi,%esi
  307dae:	41 21 c2             	and    %eax,%r10d
  307db1:	e9 22 fa ff ff       	jmpq   3077d8 <_doprnt+0x2f8>
  307db6:	48 63 bd 5c ff ff ff 	movslq -0xa4(%rbp),%rdi
  307dbd:	31 f6                	xor    %esi,%esi
  307dbf:	e9 7a f9 ff ff       	jmpq   30773e <_doprnt+0x25e>
  307dc4:	44 0f b6 95 78 ff ff 	movzbl -0x88(%rbp),%r10d
  307dcb:	ff 
  307dcc:	bf 08 00 00 00       	mov    $0x8,%edi
  307dd1:	41 83 f2 01          	xor    $0x1,%r10d
  307dd5:	80 7d 80 20          	cmpb   $0x20,-0x80(%rbp)
  307dd9:	0f 94 c0             	sete   %al
  307ddc:	31 f6                	xor    %esi,%esi
  307dde:	41 21 c2             	and    %eax,%r10d
  307de1:	e9 f2 f9 ff ff       	jmpq   3077d8 <_doprnt+0x2f8>
  307de6:	44 0f b6 95 78 ff ff 	movzbl -0x88(%rbp),%r10d
  307ded:	ff 
  307dee:	48 63 bd 5c ff ff ff 	movslq -0xa4(%rbp),%rdi
  307df5:	41 83 f2 01          	xor    $0x1,%r10d
  307df9:	80 7d 80 20          	cmpb   $0x20,-0x80(%rbp)
  307dfd:	0f 94 c0             	sete   %al
  307e00:	31 f6                	xor    %esi,%esi
  307e02:	41 21 c2             	and    %eax,%r10d
  307e05:	e9 ce f9 ff ff       	jmpq   3077d8 <_doprnt+0x2f8>
  307e0a:	bf 0a 00 00 00       	mov    $0xa,%edi
  307e0f:	31 f6                	xor    %esi,%esi
  307e11:	e9 28 f9 ff ff       	jmpq   30773e <_doprnt+0x25e>
  307e16:	48 8b 85 70 ff ff ff 	mov    -0x90(%rbp),%rax
  307e1d:	8b 00                	mov    (%rax),%eax
  307e1f:	83 f8 30             	cmp    $0x30,%eax
  307e22:	0f 83 18 03 00 00    	jae    308140 <_doprnt+0xc60>
  307e28:	48 8b bd 70 ff ff ff 	mov    -0x90(%rbp),%rdi
  307e2f:	8d 50 08             	lea    0x8(%rax),%edx
  307e32:	89 c6                	mov    %eax,%esi
  307e34:	83 fa 2f             	cmp    $0x2f,%edx
  307e37:	48 8b 4f 10          	mov    0x10(%rdi),%rcx
  307e3b:	89 17                	mov    %edx,(%rdi)
  307e3d:	48 8b 3c 31          	mov    (%rcx,%rsi,1),%rdi
  307e41:	48 89 7d 88          	mov    %rdi,-0x78(%rbp)
  307e45:	0f 87 87 08 00 00    	ja     3086d2 <_doprnt+0x11f2>
  307e4b:	48 8b bd 70 ff ff ff 	mov    -0x90(%rbp),%rdi
  307e52:	83 c0 10             	add    $0x10,%eax
  307e55:	48 01 ca             	add    %rcx,%rdx
  307e58:	89 07                	mov    %eax,(%rdi)
  307e5a:	48 8b 02             	mov    (%rdx),%rax
  307e5d:	48 8d 7d 90          	lea    -0x70(%rbp),%rdi
  307e61:	48 b9 40 df 33 00 00 	movabs $0x33df40,%rcx
  307e68:	00 00 00 
  307e6b:	48 89 8d 48 ff ff ff 	mov    %rcx,-0xb8(%rbp)
  307e72:	49 89 c9             	mov    %rcx,%r9
  307e75:	48 83 c7 3f          	add    $0x3f,%rdi
  307e79:	48 89 45 80          	mov    %rax,-0x80(%rbp)
  307e7d:	48 0f be 00          	movsbq (%rax),%rax
  307e81:	49 89 c0             	mov    %rax,%r8
  307e84:	48 89 85 78 ff ff ff 	mov    %rax,-0x88(%rbp)
  307e8b:	48 8b 45 88          	mov    -0x78(%rbp),%rax
  307e8f:	eb 0a                	jmp    307e9b <_doprnt+0x9bb>
  307e91:	0f 1f 80 00 00 00 00 	nopl   0x0(%rax)
  307e98:	48 89 cf             	mov    %rcx,%rdi
  307e9b:	31 d2                	xor    %edx,%edx
  307e9d:	48 8d 4f ff          	lea    -0x1(%rdi),%rcx
  307ea1:	49 f7 f0             	div    %r8
  307ea4:	41 0f be 34 11       	movsbl (%r9,%rdx,1),%esi
  307ea9:	48 85 c0             	test   %rax,%rax
  307eac:	40 88 37             	mov    %sil,(%rdi)
  307eaf:	75 e7                	jne    307e98 <_doprnt+0x9b8>
  307eb1:	48 8d 45 90          	lea    -0x70(%rbp),%rax
  307eb5:	49 89 fe             	mov    %rdi,%r14
  307eb8:	4c 8d 60 3f          	lea    0x3f(%rax),%r12
  307ebc:	48 8d 45 d0          	lea    -0x30(%rbp),%rax
  307ec0:	48 39 c7             	cmp    %rax,%rdi
  307ec3:	75 14                	jne    307ed9 <_doprnt+0x9f9>
  307ec5:	eb 1c                	jmp    307ee3 <_doprnt+0xa03>
  307ec7:	66 0f 1f 84 00 00 00 	nopw   0x0(%rax,%rax,1)
  307ece:	00 00 
  307ed0:	41 0f be 76 01       	movsbl 0x1(%r14),%esi
  307ed5:	49 83 c6 01          	add    $0x1,%r14
  307ed9:	4c 89 ef             	mov    %r13,%rdi
  307edc:	ff d3                	callq  *%rbx
  307ede:	4d 39 e6             	cmp    %r12,%r14
  307ee1:	75 ed                	jne    307ed0 <_doprnt+0x9f0>
  307ee3:	48 83 7d 88 00       	cmpq   $0x0,-0x78(%rbp)
  307ee8:	0f 84 42 01 00 00    	je     308030 <_doprnt+0xb50>
  307eee:	48 8b 45 80          	mov    -0x80(%rbp),%rax
  307ef2:	4c 8b b5 48 ff ff ff 	mov    -0xb8(%rbp),%r14
  307ef9:	4c 89 bd 68 ff ff ff 	mov    %r15,-0x98(%rbp)
  307f00:	4c 8d 60 01          	lea    0x1(%rax),%r12
  307f04:	0f b6 70 01          	movzbl 0x1(%rax),%esi
  307f08:	31 c0                	xor    %eax,%eax
  307f0a:	44 0f be fe          	movsbl %sil,%r15d
  307f0e:	45 85 ff             	test   %r15d,%r15d
  307f11:	0f 84 f8 00 00 00    	je     30800f <_doprnt+0xb2f>
  307f17:	41 80 7c 24 01 20    	cmpb   $0x20,0x1(%r12)
  307f1d:	0f 8f f5 02 00 00    	jg     308218 <_doprnt+0xd38>
  307f23:	84 c0                	test   %al,%al
  307f25:	0f 84 7c 03 00 00    	je     3082a7 <_doprnt+0xdc7>
  307f2b:	be 2c 00 00 00       	mov    $0x2c,%esi
  307f30:	4c 89 ef             	mov    %r13,%rdi
  307f33:	ff d3                	callq  *%rbx
  307f35:	41 0f be 74 24 02    	movsbl 0x2(%r12),%esi
  307f3b:	41 0f be 7c 24 01    	movsbl 0x1(%r12),%edi
  307f41:	49 8d 44 24 02       	lea    0x2(%r12),%rax
  307f46:	49 89 c4             	mov    %rax,%r12
  307f49:	40 80 fe 20          	cmp    $0x20,%sil
  307f4d:	89 7d 80             	mov    %edi,-0x80(%rbp)
  307f50:	7e 1a                	jle    307f6c <_doprnt+0xa8c>
  307f52:	66 0f 1f 44 00 00    	nopw   0x0(%rax,%rax,1)
  307f58:	49 83 c4 01          	add    $0x1,%r12
  307f5c:	4c 89 ef             	mov    %r13,%rdi
  307f5f:	ff d3                	callq  *%rbx
  307f61:	41 0f be 34 24       	movsbl (%r12),%esi
  307f66:	40 80 fe 20          	cmp    $0x20,%sil
  307f6a:	7f ec                	jg     307f58 <_doprnt+0xa78>
  307f6c:	8b 7d 80             	mov    -0x80(%rbp),%edi
  307f6f:	44 89 f9             	mov    %r15d,%ecx
  307f72:	b8 02 00 00 00       	mov    $0x2,%eax
  307f77:	48 8b 55 88          	mov    -0x78(%rbp),%rdx
  307f7b:	4c 8b 85 78 ff ff ff 	mov    -0x88(%rbp),%r8
  307f82:	29 f9                	sub    %edi,%ecx
  307f84:	d3 e0                	shl    %cl,%eax
  307f86:	89 f9                	mov    %edi,%ecx
  307f88:	48 8d 7d 90          	lea    -0x70(%rbp),%rdi
  307f8c:	83 e9 01             	sub    $0x1,%ecx
  307f8f:	83 e8 01             	sub    $0x1,%eax
  307f92:	48 d3 ea             	shr    %cl,%rdx
  307f95:	48 83 c7 3f          	add    $0x3f,%rdi
  307f99:	21 d0                	and    %edx,%eax
  307f9b:	eb 06                	jmp    307fa3 <_doprnt+0xac3>
  307f9d:	0f 1f 00             	nopl   (%rax)
  307fa0:	48 89 cf             	mov    %rcx,%rdi
  307fa3:	31 d2                	xor    %edx,%edx
  307fa5:	48 8d 4f ff          	lea    -0x1(%rdi),%rcx
  307fa9:	49 f7 f0             	div    %r8
  307fac:	41 0f be 34 16       	movsbl (%r14,%rdx,1),%esi
  307fb1:	48 85 c0             	test   %rax,%rax
  307fb4:	40 88 37             	mov    %sil,(%rdi)
  307fb7:	75 e7                	jne    307fa0 <_doprnt+0xac0>
  307fb9:	48 8d 45 90          	lea    -0x70(%rbp),%rax
  307fbd:	49 89 ff             	mov    %rdi,%r15
  307fc0:	48 83 c0 3f          	add    $0x3f,%rax
  307fc4:	48 89 c7             	mov    %rax,%rdi
  307fc7:	48 8d 45 d0          	lea    -0x30(%rbp),%rax
  307fcb:	49 39 c7             	cmp    %rax,%r15
  307fce:	74 28                	je     307ff8 <_doprnt+0xb18>
  307fd0:	4c 89 65 80          	mov    %r12,-0x80(%rbp)
  307fd4:	4d 89 fc             	mov    %r15,%r12
  307fd7:	49 89 ff             	mov    %rdi,%r15
  307fda:	eb 0e                	jmp    307fea <_doprnt+0xb0a>
  307fdc:	0f 1f 40 00          	nopl   0x0(%rax)
  307fe0:	41 0f be 74 24 01    	movsbl 0x1(%r12),%esi
  307fe6:	49 83 c4 01          	add    $0x1,%r12
  307fea:	4c 89 ef             	mov    %r13,%rdi
  307fed:	ff d3                	callq  *%rbx
  307fef:	4d 39 fc             	cmp    %r15,%r12
  307ff2:	75 ec                	jne    307fe0 <_doprnt+0xb00>
  307ff4:	4c 8b 65 80          	mov    -0x80(%rbp),%r12
  307ff8:	41 0f b6 34 24       	movzbl (%r12),%esi
  307ffd:	b8 01 00 00 00       	mov    $0x1,%eax
  308002:	44 0f be fe          	movsbl %sil,%r15d
  308006:	45 85 ff             	test   %r15d,%r15d
  308009:	0f 85 08 ff ff ff    	jne    307f17 <_doprnt+0xa37>
  30800f:	84 c0                	test   %al,%al
  308011:	4c 8b bd 68 ff ff ff 	mov    -0x98(%rbp),%r15
  308018:	74 16                	je     308030 <_doprnt+0xb50>
  30801a:	be 3e 00 00 00       	mov    $0x3e,%esi
  30801f:	4c 89 ef             	mov    %r13,%rdi
  308022:	ff d3                	callq  *%rbx
  308024:	eb 0a                	jmp    308030 <_doprnt+0xb50>
  308026:	49 83 ef 01          	sub    $0x1,%r15
  30802a:	66 0f 1f 44 00 00    	nopw   0x0(%rax,%rax,1)
  308030:	4d 8d 67 01          	lea    0x1(%r15),%r12
  308034:	e9 d7 f4 ff ff       	jmpq   307510 <_doprnt+0x30>
  308039:	0f be f2             	movsbl %dl,%esi
  30803c:	4c 89 ef             	mov    %r13,%rdi
  30803f:	ff d3                	callq  *%rbx
  308041:	eb ed                	jmp    308030 <_doprnt+0xb50>
  308043:	44 89 ce             	mov    %r9d,%esi
  308046:	4c 89 ef             	mov    %r13,%rdi
  308049:	ff d3                	callq  *%rbx
  30804b:	0f 1f 44 00 00       	nopl   0x0(%rax,%rax,1)
  308050:	e9 ba f8 ff ff       	jmpq   30790f <_doprnt+0x42f>
  308055:	83 6d 88 01          	subl   $0x1,-0x78(%rbp)
  308059:	0f 88 ef f8 ff ff    	js     30794e <_doprnt+0x46e>
  30805f:	44 8b 75 88          	mov    -0x78(%rbp),%r14d
  308063:	0f 1f 44 00 00       	nopl   0x0(%rax,%rax,1)
  308068:	41 83 ee 01          	sub    $0x1,%r14d
  30806c:	be 30 00 00 00       	mov    $0x30,%esi
  308071:	4c 89 ef             	mov    %r13,%rdi
  308074:	ff d3                	callq  *%rbx
  308076:	41 83 fe ff          	cmp    $0xffffffff,%r14d
  30807a:	75 ec                	jne    308068 <_doprnt+0xb88>
  30807c:	44 89 75 88          	mov    %r14d,-0x78(%rbp)
  308080:	e9 c9 f8 ff ff       	jmpq   30794e <_doprnt+0x46e>
  308085:	48 8b 8d 70 ff ff ff 	mov    -0x90(%rbp),%rcx
  30808c:	48 8b 41 08          	mov    0x8(%rcx),%rax
  308090:	48 8d 50 08          	lea    0x8(%rax),%rdx
  308094:	48 89 51 08          	mov    %rdx,0x8(%rcx)
  308098:	e9 69 f7 ff ff       	jmpq   307806 <_doprnt+0x326>
  30809d:	48 8b 8d 70 ff ff ff 	mov    -0x90(%rbp),%rcx
  3080a4:	48 8b 51 08          	mov    0x8(%rcx),%rdx
  3080a8:	48 8d 42 08          	lea    0x8(%rdx),%rax
  3080ac:	48 89 41 08          	mov    %rax,0x8(%rcx)
  3080b0:	e9 b7 f6 ff ff       	jmpq   30776c <_doprnt+0x28c>
  3080b5:	bf 08 00 00 00       	mov    $0x8,%edi
  3080ba:	49 be 9c eb 33 00 00 	movabs $0x33eb9c,%r14
  3080c1:	00 00 00 
  3080c4:	e9 70 f7 ff ff       	jmpq   307839 <_doprnt+0x359>
  3080c9:	bf 10 00 00 00       	mov    $0x10,%edi
  3080ce:	49 be 9e eb 33 00 00 	movabs $0x33eb9e,%r14
  3080d5:	00 00 00 
  3080d8:	e9 5c f7 ff ff       	jmpq   307839 <_doprnt+0x359>
  3080dd:	48 8b 8d 70 ff ff ff 	mov    -0x90(%rbp),%rcx
  3080e4:	48 8b 51 08          	mov    0x8(%rcx),%rdx
  3080e8:	48 8d 42 08          	lea    0x8(%rdx),%rax
  3080ec:	48 89 41 08          	mov    %rax,0x8(%rcx)
  3080f0:	e9 f2 f8 ff ff       	jmpq   3079e7 <_doprnt+0x507>
  3080f5:	48 8b 85 70 ff ff ff 	mov    -0x90(%rbp),%rax
  3080fc:	8b 00                	mov    (%rax),%eax
  3080fe:	83 f8 30             	cmp    $0x30,%eax
  308101:	0f 83 b2 00 00 00    	jae    3081b9 <_doprnt+0xcd9>
  308107:	48 8b bd 70 ff ff ff 	mov    -0x90(%rbp),%rdi
  30810e:	89 c2                	mov    %eax,%edx
  308110:	83 c0 08             	add    $0x8,%eax
  308113:	48 03 57 10          	add    0x10(%rdi),%rdx
  308117:	89 07                	mov    %eax,(%rdi)
  308119:	8b 02                	mov    (%rdx),%eax
  30811b:	49 83 c7 02          	add    $0x2,%r15
  30811f:	41 0f b6 17          	movzbl (%r15),%edx
  308123:	e9 c7 f4 ff ff       	jmpq   3075ef <_doprnt+0x10f>
  308128:	48 8b 8d 70 ff ff ff 	mov    -0x90(%rbp),%rcx
  30812f:	48 8b 41 08          	mov    0x8(%rcx),%rax
  308133:	48 8d 50 08          	lea    0x8(%rax),%rdx
  308137:	48 89 51 08          	mov    %rdx,0x8(%rcx)
  30813b:	e9 2c fb ff ff       	jmpq   307c6c <_doprnt+0x78c>
  308140:	48 8b bd 70 ff ff ff 	mov    -0x90(%rbp),%rdi
  308147:	48 8b 57 08          	mov    0x8(%rdi),%rdx
  30814b:	48 89 d0             	mov    %rdx,%rax
  30814e:	48 83 c2 08          	add    $0x8,%rdx
  308152:	48 89 57 08          	mov    %rdx,0x8(%rdi)
  308156:	48 8b 00             	mov    (%rax),%rax
  308159:	48 89 45 88          	mov    %rax,-0x78(%rbp)
  30815d:	48 8b bd 70 ff ff ff 	mov    -0x90(%rbp),%rdi
  308164:	48 8d 42 08          	lea    0x8(%rdx),%rax
  308168:	48 89 47 08          	mov    %rax,0x8(%rdi)
  30816c:	e9 e9 fc ff ff       	jmpq   307e5a <_doprnt+0x97a>
  308171:	48 8b bd 70 ff ff ff 	mov    -0x90(%rbp),%rdi
  308178:	48 8b 47 08          	mov    0x8(%rdi),%rax
  30817c:	48 8d 50 08          	lea    0x8(%rax),%rdx
  308180:	48 89 57 08          	mov    %rdx,0x8(%rdi)
  308184:	e9 d0 fb ff ff       	jmpq   307d59 <_doprnt+0x879>
  308189:	48 8b bd 70 ff ff ff 	mov    -0x90(%rbp),%rdi
  308190:	48 8b 57 08          	mov    0x8(%rdi),%rdx
  308194:	48 8d 4a 08          	lea    0x8(%rdx),%rcx
  308198:	48 89 4f 08          	mov    %rcx,0x8(%rdi)
  30819c:	e9 71 f9 ff ff       	jmpq   307b12 <_doprnt+0x632>
  3081a1:	48 8b bd 70 ff ff ff 	mov    -0x90(%rbp),%rdi
  3081a8:	48 8b 47 08          	mov    0x8(%rdi),%rax
  3081ac:	48 8d 50 08          	lea    0x8(%rax),%rdx
  3081b0:	48 89 57 08          	mov    %rdx,0x8(%rdi)
  3081b4:	e9 5d f8 ff ff       	jmpq   307a16 <_doprnt+0x536>
  3081b9:	48 8b bd 70 ff ff ff 	mov    -0x90(%rbp),%rdi
  3081c0:	48 8b 57 08          	mov    0x8(%rdi),%rdx
  3081c4:	48 8d 42 08          	lea    0x8(%rdx),%rax
  3081c8:	48 89 47 08          	mov    %rax,0x8(%rdi)
  3081cc:	e9 48 ff ff ff       	jmpq   308119 <_doprnt+0xc39>
  3081d1:	4d 63 e3             	movslq %r11d,%r12
  3081d4:	4c 39 e0             	cmp    %r12,%rax
  3081d7:	0f 8d 7b f8 ff ff    	jge    307a58 <_doprnt+0x578>
  3081dd:	44 88 b5 60 ff ff ff 	mov    %r14b,-0xa0(%rbp)
  3081e4:	44 89 9d 50 ff ff ff 	mov    %r11d,-0xb0(%rbp)
  3081eb:	49 89 c6             	mov    %rax,%r14
  3081ee:	49 83 c6 01          	add    $0x1,%r14
  3081f2:	be 20 00 00 00       	mov    $0x20,%esi
  3081f7:	4c 89 ef             	mov    %r13,%rdi
  3081fa:	ff d3                	callq  *%rbx
  3081fc:	4d 39 e6             	cmp    %r12,%r14
  3081ff:	7c ed                	jl     3081ee <_doprnt+0xd0e>
  308201:	44 0f b6 b5 60 ff ff 	movzbl -0xa0(%rbp),%r14d
  308208:	ff 
  308209:	44 8b 9d 50 ff ff ff 	mov    -0xb0(%rbp),%r11d
  308210:	4c 89 e0             	mov    %r12,%rax
  308213:	e9 40 f8 ff ff       	jmpq   307a58 <_doprnt+0x578>
  308218:	41 8d 4f ff          	lea    -0x1(%r15),%ecx
  30821c:	bf 01 00 00 00       	mov    $0x1,%edi
  308221:	49 8d 54 24 01       	lea    0x1(%r12),%rdx
  308226:	d3 e7                	shl    %cl,%edi
  308228:	48 63 cf             	movslq %edi,%rcx
  30822b:	48 85 4d 88          	test   %rcx,-0x78(%rbp)
  30822f:	74 4d                	je     30827e <_doprnt+0xd9e>
  308231:	84 c0                	test   %al,%al
  308233:	48 89 55 80          	mov    %rdx,-0x80(%rbp)
  308237:	74 7d                	je     3082b6 <_doprnt+0xdd6>
  308239:	be 2c 00 00 00       	mov    $0x2c,%esi
  30823e:	4c 89 ef             	mov    %r13,%rdi
  308241:	ff d3                	callq  *%rbx
  308243:	48 8b 55 80          	mov    -0x80(%rbp),%rdx
  308247:	41 0f be 74 24 01    	movsbl 0x1(%r12),%esi
  30824d:	49 89 d4             	mov    %rdx,%r12
  308250:	40 80 fe 20          	cmp    $0x20,%sil
  308254:	7e 1e                	jle    308274 <_doprnt+0xd94>
  308256:	66 2e 0f 1f 84 00 00 	nopw   %cs:0x0(%rax,%rax,1)
  30825d:	00 00 00 
  308260:	49 83 c4 01          	add    $0x1,%r12
  308264:	4c 89 ef             	mov    %r13,%rdi
  308267:	ff d3                	callq  *%rbx
  308269:	41 0f be 34 24       	movsbl (%r12),%esi
  30826e:	40 80 fe 20          	cmp    $0x20,%sil
  308272:	7f ec                	jg     308260 <_doprnt+0xd80>
  308274:	b8 01 00 00 00       	mov    $0x1,%eax
  308279:	e9 8c fc ff ff       	jmpq   307f0a <_doprnt+0xa2a>
  30827e:	0f b6 72 01          	movzbl 0x1(%rdx),%esi
  308282:	4c 8d 62 01          	lea    0x1(%rdx),%r12
  308286:	40 80 fe 20          	cmp    $0x20,%sil
  30828a:	0f 8e 7a fc ff ff    	jle    307f0a <_doprnt+0xa2a>
  308290:	4c 89 e2             	mov    %r12,%rdx
  308293:	0f b6 72 01          	movzbl 0x1(%rdx),%esi
  308297:	4c 8d 62 01          	lea    0x1(%rdx),%r12
  30829b:	40 80 fe 20          	cmp    $0x20,%sil
  30829f:	0f 8e 65 fc ff ff    	jle    307f0a <_doprnt+0xa2a>
  3082a5:	eb e9                	jmp    308290 <_doprnt+0xdb0>
  3082a7:	be 3c 00 00 00       	mov    $0x3c,%esi
  3082ac:	4c 89 ef             	mov    %r13,%rdi
  3082af:	ff d3                	callq  *%rbx
  3082b1:	e9 7f fc ff ff       	jmpq   307f35 <_doprnt+0xa55>
  3082b6:	be 3c 00 00 00       	mov    $0x3c,%esi
  3082bb:	4c 89 ef             	mov    %r13,%rdi
  3082be:	ff d3                	callq  *%rbx
  3082c0:	48 8b 55 80          	mov    -0x80(%rbp),%rdx
  3082c4:	eb 81                	jmp    308247 <_doprnt+0xd67>
  3082c6:	49 63 fb             	movslq %r11d,%rdi
  3082c9:	41 0f be 34 24       	movsbl (%r12),%esi
  3082ce:	48 89 7d 88          	mov    %rdi,-0x78(%rbp)
  3082d2:	e9 d8 f8 ff ff       	jmpq   307baf <_doprnt+0x6cf>
  3082d7:	48 8b 7d 88          	mov    -0x78(%rbp),%rdi
  3082db:	48 89 fa             	mov    %rdi,%rdx
  3082de:	48 c1 ea 0a          	shr    $0xa,%rdx
  3082e2:	89 d1                	mov    %edx,%ecx
  3082e4:	83 e1 7f             	and    $0x7f,%ecx
  3082e7:	0f b6 d1             	movzbl %cl,%edx
  3082ea:	88 8d 5b ff ff ff    	mov    %cl,-0xa5(%rbp)
  3082f0:	83 fa 0f             	cmp    $0xf,%edx
  3082f3:	0f 9f c2             	setg   %dl
  3082f6:	31 f6                	xor    %esi,%esi
  3082f8:	0f b6 d2             	movzbl %dl,%edx
  3082fb:	48 8d 4a 01          	lea    0x1(%rdx),%rcx
  3082ff:	48 89 fa             	mov    %rdi,%rdx
  308302:	48 c1 ea 11          	shr    $0x11,%rdx
  308306:	89 d7                	mov    %edx,%edi
  308308:	48 89 8d 60 ff ff ff 	mov    %rcx,-0xa0(%rbp)
  30830f:	66 81 e7 ff 07       	and    $0x7ff,%di
  308314:	0f b7 d7             	movzwl %di,%edx
  308317:	66 89 bd 48 ff ff ff 	mov    %di,-0xb8(%rbp)
  30831e:	83 fa 0f             	cmp    $0xf,%edx
  308321:	40 0f 9f c6          	setg   %sil
  308325:	81 fa ff 00 00 00    	cmp    $0xff,%edx
  30832b:	0f 9f c2             	setg   %dl
  30832e:	48 8d 44 30 04       	lea    0x4(%rax,%rsi,1),%rax
  308333:	0f b6 d2             	movzbl %dl,%edx
  308336:	48 01 d0             	add    %rdx,%rax
  308339:	0f b6 95 78 ff ff ff 	movzbl -0x88(%rbp),%edx
  308340:	48 89 85 68 ff ff ff 	mov    %rax,-0x98(%rbp)
  308347:	83 f2 01             	xor    $0x1,%edx
  30834a:	45 85 db             	test   %r11d,%r11d
  30834d:	0f 9f c0             	setg   %al
  308350:	20 c2                	and    %al,%dl
  308352:	88 95 50 ff ff ff    	mov    %dl,-0xb0(%rbp)
  308358:	74 0a                	je     308364 <_doprnt+0xe84>
  30835a:	80 7d 80 20          	cmpb   $0x20,-0x80(%rbp)
  30835e:	0f 84 b3 02 00 00    	je     308617 <_doprnt+0x1137>
  308364:	49 63 c3             	movslq %r11d,%rax
  308367:	48 89 45 88          	mov    %rax,-0x78(%rbp)
  30836b:	45 84 f6             	test   %r14b,%r14b
  30836e:	0f 85 36 02 00 00    	jne    3085aa <_doprnt+0x10ca>
  308374:	80 bd 50 ff ff ff 00 	cmpb   $0x0,-0xb0(%rbp)
  30837b:	74 0a                	je     308387 <_doprnt+0xea7>
  30837d:	80 7d 80 30          	cmpb   $0x30,-0x80(%rbp)
  308381:	0f 84 e7 02 00 00    	je     30866e <_doprnt+0x118e>
  308387:	48 8d 7d 90          	lea    -0x70(%rbp),%rdi
  30838b:	48 b9 40 df 33 00 00 	movabs $0x33df40,%rcx
  308392:	00 00 00 
  308395:	0f b7 85 48 ff ff ff 	movzwl -0xb8(%rbp),%eax
  30839c:	48 89 ce             	mov    %rcx,%rsi
  30839f:	48 89 8d 48 ff ff ff 	mov    %rcx,-0xb8(%rbp)
  3083a6:	48 83 c7 3f          	add    $0x3f,%rdi
  3083aa:	eb 07                	jmp    3083b3 <_doprnt+0xed3>
  3083ac:	0f 1f 40 00          	nopl   0x0(%rax)
  3083b0:	48 89 cf             	mov    %rcx,%rdi
  3083b3:	48 89 c2             	mov    %rax,%rdx
  3083b6:	48 c1 e8 04          	shr    $0x4,%rax
  3083ba:	48 8d 4f ff          	lea    -0x1(%rdi),%rcx
  3083be:	83 e2 0f             	and    $0xf,%edx
  3083c1:	48 85 c0             	test   %rax,%rax
  3083c4:	0f b6 14 16          	movzbl (%rsi,%rdx,1),%edx
  3083c8:	88 17                	mov    %dl,(%rdi)
  3083ca:	75 e4                	jne    3083b0 <_doprnt+0xed0>
  3083cc:	48 8d 45 90          	lea    -0x70(%rbp),%rax
  3083d0:	49 89 fc             	mov    %rdi,%r12
  3083d3:	48 83 c0 3f          	add    $0x3f,%rax
  3083d7:	48 89 c7             	mov    %rax,%rdi
  3083da:	48 8d 45 d0          	lea    -0x30(%rbp),%rax
  3083de:	49 39 c4             	cmp    %rax,%r12
  3083e1:	74 37                	je     30841a <_doprnt+0xf3a>
  3083e3:	44 88 b5 5a ff ff ff 	mov    %r14b,-0xa6(%rbp)
  3083ea:	4d 89 e6             	mov    %r12,%r14
  3083ed:	49 89 dc             	mov    %rbx,%r12
  3083f0:	48 89 fb             	mov    %rdi,%rbx
  3083f3:	eb 0c                	jmp    308401 <_doprnt+0xf21>
  3083f5:	0f 1f 00             	nopl   (%rax)
  3083f8:	41 0f b6 56 01       	movzbl 0x1(%r14),%edx
  3083fd:	49 83 c6 01          	add    $0x1,%r14
  308401:	0f be f2             	movsbl %dl,%esi
  308404:	4c 89 ef             	mov    %r13,%rdi
  308407:	41 ff d4             	callq  *%r12
  30840a:	49 39 de             	cmp    %rbx,%r14
  30840d:	75 e9                	jne    3083f8 <_doprnt+0xf18>
  30840f:	44 0f b6 b5 5a ff ff 	movzbl -0xa6(%rbp),%r14d
  308416:	ff 
  308417:	4c 89 e3             	mov    %r12,%rbx
  30841a:	be 2e 00 00 00       	mov    $0x2e,%esi
  30841f:	4c 89 ef             	mov    %r13,%rdi
  308422:	ff d3                	callq  *%rbx
  308424:	80 bd 50 ff ff ff 00 	cmpb   $0x0,-0xb0(%rbp)
  30842b:	0f 84 53 01 00 00    	je     308584 <_doprnt+0x10a4>
  308431:	48 8b bd 68 ff ff ff 	mov    -0x98(%rbp),%rdi
  308438:	48 8b 8d 60 ff ff ff 	mov    -0xa0(%rbp),%rcx
  30843f:	48 89 f8             	mov    %rdi,%rax
  308442:	48 01 c8             	add    %rcx,%rax
  308445:	48 39 45 88          	cmp    %rax,-0x78(%rbp)
  308449:	48 89 85 50 ff ff ff 	mov    %rax,-0xb0(%rbp)
  308450:	7e 5c                	jle    3084ae <_doprnt+0xfce>
  308452:	0f be 45 80          	movsbl -0x80(%rbp),%eax
  308456:	44 88 b5 50 ff ff ff 	mov    %r14b,-0xb0(%rbp)
  30845d:	89 45 80             	mov    %eax,-0x80(%rbp)
  308460:	48 89 f8             	mov    %rdi,%rax
  308463:	48 83 c0 01          	add    $0x1,%rax
  308467:	49 89 c4             	mov    %rax,%r12
  30846a:	48 89 c8             	mov    %rcx,%rax
  30846d:	4c 01 e0             	add    %r12,%rax
  308470:	4d 89 e6             	mov    %r12,%r14
  308473:	49 89 dc             	mov    %rbx,%r12
  308476:	48 89 c3             	mov    %rax,%rbx
  308479:	eb 07                	jmp    308482 <_doprnt+0xfa2>
  30847b:	48 89 d3             	mov    %rdx,%rbx
  30847e:	49 83 c6 01          	add    $0x1,%r14
  308482:	8b 75 80             	mov    -0x80(%rbp),%esi
  308485:	4c 89 ef             	mov    %r13,%rdi
  308488:	41 ff d4             	callq  *%r12
  30848b:	48 3b 5d 88          	cmp    -0x78(%rbp),%rbx
  30848f:	48 8d 53 01          	lea    0x1(%rbx),%rdx
  308493:	7c e6                	jl     30847b <_doprnt+0xf9b>
  308495:	4c 89 b5 68 ff ff ff 	mov    %r14,-0x98(%rbp)
  30849c:	44 0f b6 b5 50 ff ff 	movzbl -0xb0(%rbp),%r14d
  3084a3:	ff 
  3084a4:	48 89 9d 50 ff ff ff 	mov    %rbx,-0xb0(%rbp)
  3084ab:	4c 89 e3             	mov    %r12,%rbx
  3084ae:	48 8d 7d 90          	lea    -0x70(%rbp),%rdi
  3084b2:	0f b6 85 5b ff ff ff 	movzbl -0xa5(%rbp),%eax
  3084b9:	48 8d 4f 3f          	lea    0x3f(%rdi),%rcx
  3084bd:	48 8b bd 48 ff ff ff 	mov    -0xb8(%rbp),%rdi
  3084c4:	eb 0d                	jmp    3084d3 <_doprnt+0xff3>
  3084c6:	66 2e 0f 1f 84 00 00 	nopw   %cs:0x0(%rax,%rax,1)
  3084cd:	00 00 00 
  3084d0:	48 89 f1             	mov    %rsi,%rcx
  3084d3:	48 89 c2             	mov    %rax,%rdx
  3084d6:	48 c1 e8 04          	shr    $0x4,%rax
  3084da:	48 8d 71 ff          	lea    -0x1(%rcx),%rsi
  3084de:	83 e2 0f             	and    $0xf,%edx
  3084e1:	48 85 c0             	test   %rax,%rax
  3084e4:	0f b6 14 17          	movzbl (%rdi,%rdx,1),%edx
  3084e8:	88 11                	mov    %dl,(%rcx)
  3084ea:	75 e4                	jne    3084d0 <_doprnt+0xff0>
  3084ec:	48 8d 45 90          	lea    -0x70(%rbp),%rax
  3084f0:	48 83 c0 3f          	add    $0x3f,%rax
  3084f4:	48 89 c7             	mov    %rax,%rdi
  3084f7:	48 8d 45 d0          	lea    -0x30(%rbp),%rax
  3084fb:	48 39 c1             	cmp    %rax,%rcx
  3084fe:	74 2f                	je     30852f <_doprnt+0x104f>
  308500:	44 88 75 80          	mov    %r14b,-0x80(%rbp)
  308504:	49 89 dc             	mov    %rbx,%r12
  308507:	49 89 ce             	mov    %rcx,%r14
  30850a:	48 89 fb             	mov    %rdi,%rbx
  30850d:	eb 0a                	jmp    308519 <_doprnt+0x1039>
  30850f:	90                   	nop
  308510:	41 0f b6 56 01       	movzbl 0x1(%r14),%edx
  308515:	49 83 c6 01          	add    $0x1,%r14
  308519:	0f be f2             	movsbl %dl,%esi
  30851c:	4c 89 ef             	mov    %r13,%rdi
  30851f:	41 ff d4             	callq  *%r12
  308522:	49 39 de             	cmp    %rbx,%r14
  308525:	75 e9                	jne    308510 <_doprnt+0x1030>
  308527:	44 0f b6 75 80       	movzbl -0x80(%rbp),%r14d
  30852c:	4c 89 e3             	mov    %r12,%rbx
  30852f:	45 84 f6             	test   %r14b,%r14b
  308532:	75 6a                	jne    30859e <_doprnt+0x10be>
  308534:	48 8b 45 88          	mov    -0x78(%rbp),%rax
  308538:	48 39 85 50 ff ff ff 	cmp    %rax,-0xb0(%rbp)
  30853f:	0f 8d eb fa ff ff    	jge    308030 <_doprnt+0xb50>
  308545:	80 bd 78 ff ff ff 00 	cmpb   $0x0,-0x88(%rbp)
  30854c:	0f 84 de fa ff ff    	je     308030 <_doprnt+0xb50>
  308552:	48 8b 85 68 ff ff ff 	mov    -0x98(%rbp),%rax
  308559:	48 8b bd 60 ff ff ff 	mov    -0xa0(%rbp),%rdi
  308560:	4c 8d 64 38 01       	lea    0x1(%rax,%rdi,1),%r12
  308565:	eb 03                	jmp    30856a <_doprnt+0x108a>
  308567:	49 89 c4             	mov    %rax,%r12
  30856a:	be 20 00 00 00       	mov    $0x20,%esi
  30856f:	4c 89 ef             	mov    %r13,%rdi
  308572:	ff d3                	callq  *%rbx
  308574:	4c 39 65 88          	cmp    %r12,-0x78(%rbp)
  308578:	49 8d 44 24 01       	lea    0x1(%r12),%rax
  30857d:	7f e8                	jg     308567 <_doprnt+0x1087>
  30857f:	e9 ac fa ff ff       	jmpq   308030 <_doprnt+0xb50>
  308584:	48 8b 85 68 ff ff ff 	mov    -0x98(%rbp),%rax
  30858b:	48 03 85 60 ff ff ff 	add    -0xa0(%rbp),%rax
  308592:	48 89 85 50 ff ff ff 	mov    %rax,-0xb0(%rbp)
  308599:	e9 10 ff ff ff       	jmpq   3084ae <_doprnt+0xfce>
  30859e:	be 5d 00 00 00       	mov    $0x5d,%esi
  3085a3:	4c 89 ef             	mov    %r13,%rdi
  3085a6:	ff d3                	callq  *%rbx
  3085a8:	eb 8a                	jmp    308534 <_doprnt+0x1054>
  3085aa:	be 5b 00 00 00       	mov    $0x5b,%esi
  3085af:	4c 89 ef             	mov    %r13,%rdi
  3085b2:	ff d3                	callq  *%rbx
  3085b4:	e9 bb fd ff ff       	jmpq   308374 <_doprnt+0xe94>
  3085b9:	be 5b 00 00 00       	mov    $0x5b,%esi
  3085be:	4c 89 ef             	mov    %r13,%rdi
  3085c1:	49 bc 60 74 30 00 00 	movabs $0x307460,%r12
  3085c8:	00 00 00 
  3085cb:	ff d3                	callq  *%rbx
  3085cd:	8b 7d 88             	mov    -0x78(%rbp),%edi
  3085d0:	4c 89 ea             	mov    %r13,%rdx
  3085d3:	48 89 de             	mov    %rbx,%rsi
  3085d6:	41 ff d4             	callq  *%r12
  3085d9:	be 3a 00 00 00       	mov    $0x3a,%esi
  3085de:	4c 89 ef             	mov    %r13,%rdi
  3085e1:	ff d3                	callq  *%rbx
  3085e3:	8b bd 68 ff ff ff    	mov    -0x98(%rbp),%edi
  3085e9:	4c 89 ea             	mov    %r13,%rdx
  3085ec:	48 89 de             	mov    %rbx,%rsi
  3085ef:	41 ff d4             	callq  *%r12
  3085f2:	be 5d 00 00 00       	mov    $0x5d,%esi
  3085f7:	4c 89 ef             	mov    %r13,%rdi
  3085fa:	ff d3                	callq  *%rbx
  3085fc:	44 8b 9d 50 ff ff ff 	mov    -0xb0(%rbp),%r11d
  308603:	48 8b 85 60 ff ff ff 	mov    -0xa0(%rbp),%rax
  30860a:	e9 9d f4 ff ff       	jmpq   307aac <_doprnt+0x5cc>
  30860f:	45 31 f6             	xor    %r14d,%r14d
  308612:	e9 e0 f5 ff ff       	jmpq   307bf7 <_doprnt+0x717>
  308617:	48 8b bd 68 ff ff ff 	mov    -0x98(%rbp),%rdi
  30861e:	4d 63 e3             	movslq %r11d,%r12
  308621:	4c 89 65 88          	mov    %r12,-0x78(%rbp)
  308625:	48 89 f8             	mov    %rdi,%rax
  308628:	48 83 c0 02          	add    $0x2,%rax
  30862c:	49 39 c4             	cmp    %rax,%r12
  30862f:	0f 8e 36 fd ff ff    	jle    30836b <_doprnt+0xe8b>
  308635:	48 89 f8             	mov    %rdi,%rax
  308638:	48 89 85 68 ff ff ff 	mov    %rax,-0x98(%rbp)
  30863f:	be 20 00 00 00       	mov    $0x20,%esi
  308644:	4c 89 ef             	mov    %r13,%rdi
  308647:	ff d3                	callq  *%rbx
  308649:	48 8b 85 68 ff ff ff 	mov    -0x98(%rbp),%rax
  308650:	48 83 c0 01          	add    $0x1,%rax
  308654:	48 8d 50 02          	lea    0x2(%rax),%rdx
  308658:	4c 39 e2             	cmp    %r12,%rdx
  30865b:	7c db                	jl     308638 <_doprnt+0x1158>
  30865d:	49 8d 44 24 fe       	lea    -0x2(%r12),%rax
  308662:	48 89 85 68 ff ff ff 	mov    %rax,-0x98(%rbp)
  308669:	e9 fd fc ff ff       	jmpq   30836b <_doprnt+0xe8b>
  30866e:	4c 8b a5 68 ff ff ff 	mov    -0x98(%rbp),%r12
  308675:	4c 89 e0             	mov    %r12,%rax
  308678:	48 83 c0 02          	add    $0x2,%rax
  30867c:	48 39 45 88          	cmp    %rax,-0x78(%rbp)
  308680:	0f 8e 01 fd ff ff    	jle    308387 <_doprnt+0xea7>
  308686:	49 83 c4 01          	add    $0x1,%r12
  30868a:	be 30 00 00 00       	mov    $0x30,%esi
  30868f:	4c 89 ef             	mov    %r13,%rdi
  308692:	ff d3                	callq  *%rbx
  308694:	49 8d 44 24 02       	lea    0x2(%r12),%rax
  308699:	48 39 45 88          	cmp    %rax,-0x78(%rbp)
  30869d:	7f e7                	jg     308686 <_doprnt+0x11a6>
  30869f:	48 8b 45 88          	mov    -0x78(%rbp),%rax
  3086a3:	48 83 e8 02          	sub    $0x2,%rax
  3086a7:	48 89 85 68 ff ff ff 	mov    %rax,-0x98(%rbp)
  3086ae:	e9 d4 fc ff ff       	jmpq   308387 <_doprnt+0xea7>
  3086b3:	49 63 fb             	movslq %r11d,%rdi
  3086b6:	45 31 f6             	xor    %r14d,%r14d
  3086b9:	4c 89 65 80          	mov    %r12,-0x80(%rbp)
  3086bd:	48 89 7d 88          	mov    %rdi,-0x78(%rbp)
  3086c1:	4d 89 f4             	mov    %r14,%r12
  3086c4:	89 85 68 ff ff ff    	mov    %eax,-0x98(%rbp)
  3086ca:	49 89 fe             	mov    %rdi,%r14
